libXcomp.so.3:HandleCleanup
libXcomp.so.3:MethodBitsPerPixel
libXcomp.so.3:MethodColorMask
libXcomp.so.3:NXTransAgent
libXcomp.so.3:NXTransAlert
libXcomp.so.3:NXTransChannel
libXcomp.so.3:NXTransCleanup
libXcomp.so.3:NXTransClient
libXcomp.so.3:NXTransClose
libXcomp.so.3:NXTransCongestion
libXcomp.so.3:NXTransContinue
libXcomp.so.3:NXTransCreate
libXcomp.so.3:NXTransDestroy
libXcomp.so.3:NXTransDialog
libXcomp.so.3:NXTransExecute
libXcomp.so.3:NXTransExit
libXcomp.so.3:NXTransFile
libXcomp.so.3:NXTransFlush
libXcomp.so.3:NXTransFlushable
libXcomp.so.3:NXTransHandler
libXcomp.so.3:NXTransKeeper
libXcomp.so.3:NXTransParseCommandLine
libXcomp.so.3:NXTransParseEnvironment
libXcomp.so.3:NXTransPolicy
libXcomp.so.3:NXTransPrepare
libXcomp.so.3:NXTransProxy
libXcomp.so.3:NXTransRead
libXcomp.so.3:NXTransReadVector
libXcomp.so.3:NXTransReadable
libXcomp.so.3:NXTransRunning
libXcomp.so.3:NXTransSelect
libXcomp.so.3:NXTransSignal
libXcomp.so.3:NXTransTime
libXcomp.so.3:NXTransWatchdog
libXcomp.so.3:NXTransWrite
libXcomp.so.3:NXTransWriteVector
libXcomp.so.3:ParseBindOptions
libXcomp.so.3:ParseCommandLineOptions
libXcomp.so.3:ParseEnvironmentOptions
libXcomp.so.3:_Z10DumpActioni
libXcomp.so.3:_Z10DumpOpcodeRKi
libXcomp.so.3:_Z10DumpPolicyi
libXcomp.so.3:_Z10DumpSignali
libXcomp.so.3:_Z10ResetTimerv
libXcomp.so.3:_Z10SetNoDelayii
libXcomp.so.3:_Z10Unpack8To8P10T_colormapPKhPhS3_
libXcomp.so.3:_Z10Unpack8To8PK9ColorMaskPKhPhS4_
libXcomp.so.3:_Z10UnpackInitv
libXcomp.so.3:_Z10UnpackJpegP10T_geometryhPhiiiiS1_i
libXcomp.so.3:_Z11CheckParentPKcS0_i
libXcomp.so.3:_Z11DumpControli
libXcomp.so.3:_Z11DumpHexDataPKhj
libXcomp.so.3:_Z11DumpSessioni
libXcomp.so.3:_Z11HandleAbortv
libXcomp.so.3:_Z11HandleAlertii
libXcomp.so.3:_Z11SetLowDelayi
libXcomp.so.3:_Z11Unpack8To16P10T_colormapPKhPhS3_
libXcomp.so.3:_Z11Unpack8To16PK9ColorMaskPKhPhS4_
libXcomp.so.3:_Z11Unpack8To24P10T_colormapPKhPhS3_
libXcomp.so.3:_Z11Unpack8To24PK9ColorMaskPKhPhS4_
libXcomp.so.3:_Z11Unpack8To32P10T_colormapPKhPhS3_
libXcomp.so.3:_Z11Unpack8To32PK9ColorMaskPKhPhS4_
libXcomp.so.3:_Z11UnpackAlphaP7T_alphaPhii
libXcomp.so.3:_Z11UnpackAlphahPhiS_i
libXcomp.so.3:_Z11ZDecompressP10z_stream_sPhPjPKhj
libXcomp.so.3:_Z12DumpChecksumPKhj
libXcomp.so.3:_Z12DumpChecksumPKv
libXcomp.so.3:_Z12GetUsageInfov
libXcomp.so.3:_Z12SetKeepAlivei
libXcomp.so.3:_Z12Unpack15To16PKhPhS1_
libXcomp.so.3:_Z12Unpack15To24PKhPhS1_
libXcomp.so.3:_Z12Unpack15To32PKhPhS1_
libXcomp.so.3:_Z12Unpack16To16PK9ColorMaskPKhPhS4_
libXcomp.so.3:_Z12Unpack16To16PKhPhS1_i
libXcomp.so.3:_Z12Unpack16To24PK9ColorMaskPKhPhS4_
libXcomp.so.3:_Z12Unpack16To24PKhPhS1_i
libXcomp.so.3:_Z12Unpack16To32PK9ColorMaskPKhPhS4_
libXcomp.so.3:_Z12Unpack16To32PKhPhS1_i
libXcomp.so.3:_Z12Unpack24To24PK9ColorMaskPKhPhS4_
libXcomp.so.3:_Z12Unpack24To24PKhPhS1_
libXcomp.so.3:_Z12Unpack24To32PK9ColorMaskPKhPhS4_
libXcomp.so.3:_Z12Unpack24To32PKhPhS1_
libXcomp.so.3:_Z12Unpack32To32PK9ColorMaskPKjPjS4_
libXcomp.so.3:_Z12UnpackBitmapP10T_geometryhPhiiiiS1_i
libXcomp.so.3:_Z12strTimestampRK7timeval
libXcomp.so.3:_Z13CleanupGlobalv
libXcomp.so.3:_Z13EnableSignalsv
libXcomp.so.3:_Z13FlushCallbacki
libXcomp.so.3:_Z13GetClientPathv
libXcomp.so.3:_Z13GetKernelStepv
libXcomp.so.3:_Z13RegisterChildi
libXcomp.so.3:_Z13SetSendBufferii
libXcomp.so.3:_Z13UnpackDestroyv
libXcomp.so.3:_Z14CleanupSocketsv
libXcomp.so.3:_Z14DisableSignalsv
libXcomp.so.3:_Z14GetBytesQueuedi
libXcomp.so.3:_Z14GetHostAddressPKc
libXcomp.so.3:_Z14HandleShutdownv
libXcomp.so.3:_Z14InstallSignalsv
libXcomp.so.3:_Z14KeeperCallbackv
libXcomp.so.3:_Z14SetCloseOnExeci
libXcomp.so.3:_Z14SetNonBlockingii
libXcomp.so.3:_Z14UnpackColormaphPhiS_i
libXcomp.so.3:_Z14strMsTimestampRK7timeval
libXcomp.so.3:_Z15SetReuseAddressi
libXcomp.so.3:_Z16CleanupListenersv
libXcomp.so.3:_Z16GetBytesReadablei
libXcomp.so.3:_Z16GetBytesWritablei
libXcomp.so.3:_Z16GetCopyrightInfov
libXcomp.so.3:_Z16SetLingerTimeoutii
libXcomp.so.3:_Z16SetReceiveBufferii
libXcomp.so.3:_Z18CleanupConnectionsv
libXcomp.so.3:_Z18DumpBlockChecksumsPKhjj
libXcomp.so.3:_Z18PrintCopyrightInfov
libXcomp.so.3:_Z18UnpackBitsPerPixelP10T_geometryj
libXcomp.so.3:_Z21GetOtherCopyrightInfov
libXcomp.so.3:_Z22UnpackJpegErrorHandlerP18jpeg_common_struct
libXcomp.so.3:_Z4Forkv
libXcomp.so.3:_Z5PopenPKPcPKc
libXcomp.so.3:_Z5PopenPKcS0_
libXcomp.so.3:_Z6PcloseP8_IO_FILE
libXcomp.so.3:_Z7GetDataPSiPhi
libXcomp.so.3:_Z7GetUINTPKhi
libXcomp.so.3:_Z7PutDataPSoPKhi
libXcomp.so.3:_Z7PutUINTjPhi
libXcomp.so.3:_Z7Unpack8P10T_geometryP10T_colormapiiiPhiiiiS3_i
libXcomp.so.3:_Z7Unpack8P10T_geometryPK9ColorMaskiiiPhiiiiS4_i
libXcomp.so.3:_Z8DumpDataPKhj
libXcomp.so.3:_Z8GetULONGPKhi
libXcomp.so.3:_Z8PutULONGjPhi
libXcomp.so.3:_Z8RoundUp2j
libXcomp.so.3:_Z8RoundUp4j
libXcomp.so.3:_Z8RoundUp8j
libXcomp.so.3:_Z8SetTimeri
libXcomp.so.3:_Z8Unpack15P10T_geometryiiiPhiiiiS1_i
libXcomp.so.3:_Z8Unpack16P10T_geometryPK9ColorMaskiiiPhiiiiS4_i
libXcomp.so.3:_Z8Unpack16P10T_geometryiiiPhiiiiS1_i
libXcomp.so.3:_Z8Unpack24P10T_geometryPK9ColorMaskiiiPhiiiiS4_i
libXcomp.so.3:_Z8Unpack24P10T_geometryiiiPhiiiiS1_i
libXcomp.so.3:_Z9CheckDataPSi
libXcomp.so.3:_Z9CheckDataPSo
libXcomp.so.3:_Z9DumpStatei
libXcomp.so.3:_Z9DumpTokeni
libXcomp.so.3:_Z9FlushDataPSo
libXcomp.so.3:_Z9UnpackPngP10T_geometryhPhiiiiS1_i
libXcomp.so.3:_Z9UnpackRgbP10T_geometryhPhiiiiS1_i
libXcomp.so.3:_Z9UnpackRleP10T_geometryhPhiiiiS1_i
libXcomp.so.3:_Z9ZCompressP10z_stream_sPhPjPKhj
libXcomp.so.3:_ZN10BlockCache3setEjPKh
libXcomp.so.3:_ZN10BlockCache7compareEjPKhi
libXcomp.so.3:_ZN10BlockCache8checksumEjPKh
libXcomp.so.3:_ZN10ReadBuffer10getMessageERjS0_
libXcomp.so.3:_ZN10ReadBuffer11readMessageEPKhj
libXcomp.so.3:_ZN10ReadBuffer11readMessageEv
libXcomp.so.3:_ZN10ReadBuffer12appendBufferEPKhj
libXcomp.so.3:_ZN10ReadBuffer13convertBufferEv
libXcomp.so.3:_ZN10ReadBuffer14allocateBufferEj
libXcomp.so.3:_ZN10ReadBuffer7setSizeEii
libXcomp.so.3:_ZN10ReadBuffer9fullResetEv
libXcomp.so.3:_ZN10ReadBufferC1EP9Transport
libXcomp.so.3:_ZN10ReadBufferC2EP9Transport
libXcomp.so.3:_ZN10ReadBufferD0Ev
libXcomp.so.3:_ZN10ReadBufferD1Ev
libXcomp.so.3:_ZN10ReadBufferD2Ev
libXcomp.so.3:_ZN10SplitStore3addEP12MessageStorei12T_split_modei14T_store_actionPhPKhi
libXcomp.so.3:_ZN10SplitStore3addEP12MessageStoreii14T_store_actionPhS3_i
libXcomp.so.3:_ZN10SplitStore3popEv
libXcomp.so.3:_ZN10SplitStore4dumpEv
libXcomp.so.3:_ZN10SplitStore4findEP5Split
libXcomp.so.3:_ZN10SplitStore4loadEP5Split
libXcomp.so.3:_ZN10SplitStore4nameEPh
libXcomp.so.3:_ZN10SplitStore4pushEP5Split
libXcomp.so.3:_ZN10SplitStore4saveEP5Split
libXcomp.so.3:_ZN10SplitStore4sendER12EncodeBufferi
libXcomp.so.3:_ZN10SplitStore5startER12DecodeBuffer
libXcomp.so.3:_ZN10SplitStore5startER12EncodeBuffer
libXcomp.so.3:_ZN10SplitStore6removeEP5Split
libXcomp.so.3:_ZN10SplitStore7receiveER12DecodeBuffer
libXcomp.so.3:_ZN10SplitStoreC1EP16StaticCompressorP11CommitStorei
libXcomp.so.3:_ZN10SplitStoreC2EP16StaticCompressorP11CommitStorei
libXcomp.so.3:_ZN10SplitStoreD1Ev
libXcomp.so.3:_ZN10SplitStoreD2Ev
libXcomp.so.3:_ZN10Statistics12getTimeStatsEiRPc
libXcomp.so.3:_ZN10Statistics13getSplitStatsEiRPc
libXcomp.so.3:_ZN10Statistics13updateBitrateEi
libXcomp.so.3:_ZN10Statistics14getStreamStatsEiRPc
libXcomp.so.3:_ZN10Statistics15getBitrateStatsEiRPc
libXcomp.so.3:_ZN10Statistics15getFramingStatsEiRPc
libXcomp.so.3:_ZN10Statistics16getServicesStatsEiRPc
libXcomp.so.3:_ZN10Statistics16updateCongestionEii
libXcomp.so.3:_ZN10Statistics17resetPartialStatsEv
libXcomp.so.3:_ZN10Statistics18addCompressedBytesEjj
libXcomp.so.3:_ZN10Statistics19getClientCacheStatsEiRPc
libXcomp.so.3:_ZN10Statistics19getServerCacheStatsEiRPc
libXcomp.so.3:_ZN10Statistics21getClientOverallStatsEiRPc
libXcomp.so.3:_ZN10Statistics21getServerOverallStatsEiRPc
libXcomp.so.3:_ZN10Statistics22getClientProtocolStatsEiRPc
libXcomp.so.3:_ZN10Statistics22getServerProtocolStatsEiRPc
libXcomp.so.3:_ZN10StatisticsC1EP5Proxy
libXcomp.so.3:_ZN10StatisticsC2EP5Proxy
libXcomp.so.3:_ZN10StatisticsD1Ev
libXcomp.so.3:_ZN10StatisticsD2Ev
libXcomp.so.3:_ZN11ActionCacheC1Ev
libXcomp.so.3:_ZN11ActionCacheC2Ev
libXcomp.so.3:_ZN11ActionCacheD1Ev
libXcomp.so.3:_ZN11ActionCacheD2Ev
libXcomp.so.3:_ZN11ClientCacheC1Ev
libXcomp.so.3:_ZN11ClientCacheC2Ev
libXcomp.so.3:_ZN11ClientCacheD1Ev
libXcomp.so.3:_ZN11ClientCacheD2Ev
libXcomp.so.3:_ZN11ClientProxy10handleLoadE11T_load_type
libXcomp.so.3:_ZN11ClientProxy10handleSaveEv
libXcomp.so.3:_ZN11ClientProxy17handleAsyncEventsEv
libXcomp.so.3:_ZN11ClientProxy19handleLoadFromProxyEv
libXcomp.so.3:_ZN11ClientProxy19handleNewConnectionE14T_channel_typei
libXcomp.so.3:_ZN11ClientProxy19handleSaveFromProxyEv
libXcomp.so.3:_ZN11ClientProxy20handleNewXConnectionEi
libXcomp.so.3:_ZN11ClientProxy23handlePortConfigurationEiiiiPKc
libXcomp.so.3:_ZN11ClientProxy24handleNewAgentConnectionEP5Agent
libXcomp.so.3:_ZN11ClientProxy26handleDisplayConfigurationEPKciP8sockaddrj
libXcomp.so.3:_ZN11ClientProxy28handleNewConnectionFromProxyE14T_channel_typei
libXcomp.so.3:_ZN11ClientProxy29handleNewXConnectionFromProxyEi
libXcomp.so.3:_ZN11ClientProxyC1Ei
libXcomp.so.3:_ZN11ClientProxyC2Ei
libXcomp.so.3:_ZN11ClientProxyD0Ev
libXcomp.so.3:_ZN11ClientProxyD1Ev
libXcomp.so.3:_ZN11ClientProxyD2Ev
libXcomp.so.3:_ZN11ClientStoreC1EP16StaticCompressor
libXcomp.so.3:_ZN11ClientStoreC2EP16StaticCompressor
libXcomp.so.3:_ZN11ClientStoreD0Ev
libXcomp.so.3:_ZN11ClientStoreD1Ev
libXcomp.so.3:_ZN11ClientStoreD2Ev
libXcomp.so.3:_ZN11CommitStore3popEv
libXcomp.so.3:_ZN11CommitStore6expandEP5SplitPhi
libXcomp.so.3:_ZN11CommitStore6updateEP5Split
libXcomp.so.3:_ZN11CommitStore8validateEP5Split
libXcomp.so.3:_ZN11OpcodeStoreC1Ev
libXcomp.so.3:_ZN11OpcodeStoreC2Ev
libXcomp.so.3:_ZN11OpcodeStoreD1Ev
libXcomp.so.3:_ZN11OpcodeStoreD2Ev
libXcomp.so.3:_ZN11ServerCacheC1Ev
libXcomp.so.3:_ZN11ServerCacheC2Ev
libXcomp.so.3:_ZN11ServerCacheD1Ev
libXcomp.so.3:_ZN11ServerCacheD2Ev
libXcomp.so.3:_ZN11ServerProxy15handleCheckDropEv
libXcomp.so.3:_ZN11ServerProxy15handleCheckLoadEv
libXcomp.so.3:_ZN11ServerProxy19handleLoadFromProxyEv
libXcomp.so.3:_ZN11ServerProxy19handleNewConnectionE14T_channel_typei
libXcomp.so.3:_ZN11ServerProxy19handleSaveFromProxyEv
libXcomp.so.3:_ZN11ServerProxy20handleNewXConnectionEi
libXcomp.so.3:_ZN11ServerProxy23handlePortConfigurationEiiiiPKc
libXcomp.so.3:_ZN11ServerProxy24handleNewAgentConnectionEP5Agent
libXcomp.so.3:_ZN11ServerProxy26handleDisplayConfigurationEPKciP8sockaddrj
libXcomp.so.3:_ZN11ServerProxy28handleNewConnectionFromProxyE14T_channel_typei
libXcomp.so.3:_ZN11ServerProxy29handleNewXConnectionFromProxyEi
libXcomp.so.3:_ZN11ServerProxyC1Ei
libXcomp.so.3:_ZN11ServerProxyC2Ei
libXcomp.so.3:_ZN11ServerProxyD0Ev
libXcomp.so.3:_ZN11ServerProxyD1Ev
libXcomp.so.3:_ZN11ServerProxyD2Ev
libXcomp.so.3:_ZN11ServerStoreC1EP16StaticCompressor
libXcomp.so.3:_ZN11ServerStoreC2EP16StaticCompressor
libXcomp.so.3:_ZN11ServerStoreD0Ev
libXcomp.so.3:_ZN11ServerStoreD1Ev
libXcomp.so.3:_ZN11ServerStoreD2Ev
libXcomp.so.3:_ZN11WriteBuffer10addMessageEj
libXcomp.so.3:_ZN11WriteBuffer12partialResetEv
libXcomp.so.3:_ZN11WriteBuffer13removeMessageEj
libXcomp.so.3:_ZN11WriteBuffer17addScratchMessageEPhj
libXcomp.so.3:_ZN11WriteBuffer17addScratchMessageEj
libXcomp.so.3:_ZN11WriteBuffer20removeScratchMessageEv
libXcomp.so.3:_ZN11WriteBuffer7setSizeEjjj
libXcomp.so.3:_ZN11WriteBuffer9fullResetEv
libXcomp.so.3:_ZN11WriteBufferC1Ev
libXcomp.so.3:_ZN11WriteBufferC2Ev
libXcomp.so.3:_ZN11WriteBufferD1Ev
libXcomp.so.3:_ZN11WriteBufferD2Ev
libXcomp.so.3:_ZN12DecodeBuffer11decodeValueERjjji
libXcomp.so.3:_ZN12DecodeBuffer12decodeMemoryEj
libXcomp.so.3:_ZN12DecodeBuffer14decodeXidValueERjR8XidCache
libXcomp.so.3:_ZN12DecodeBuffer17decodeActionValueERhRtR11ActionCache
libXcomp.so.3:_ZN12DecodeBuffer17decodeCachedValueERhjR9CharCacheji
libXcomp.so.3:_ZN12DecodeBuffer17decodeCachedValueERjjR8IntCacheji
libXcomp.so.3:_ZN12DecodeBuffer17decodeNewXidValueERjS0_R8IntCacheR8XidCacheR9FreeCache
libXcomp.so.3:_ZN12DecodeBuffer17decodeNewXidValueERjS0_R8IntCacheS2_R9FreeCache
libXcomp.so.3:_ZN12DecodeBuffer18decodeFreeXidValueERjR9FreeCache
libXcomp.so.3:_ZN12DecodeBuffer25decodePositionValueCompatERsR19PositionCacheCompat
libXcomp.so.3:_ZN12DecodeBufferC1EPKhj
libXcomp.so.3:_ZN12DecodeBufferC2EPKhj
libXcomp.so.3:_ZN12EncodeBuffer10growBufferEj
libXcomp.so.3:_ZN12EncodeBuffer11alignBufferEv
libXcomp.so.3:_ZN12EncodeBuffer11encodeValueEjjj
libXcomp.so.3:_ZN12EncodeBuffer12encodeMemoryEPKhj
libXcomp.so.3:_ZN12EncodeBuffer14encodeXidValueEjR8XidCache
libXcomp.so.3:_ZN12EncodeBuffer17encodeActionValueEhtR11ActionCache
libXcomp.so.3:_ZN12EncodeBuffer17encodeCachedValueEhjR9CharCachej
libXcomp.so.3:_ZN12EncodeBuffer17encodeCachedValueEjjR8IntCachej
libXcomp.so.3:_ZN12EncodeBuffer17encodeNewXidValueEjRjR8IntCacheR8XidCacheR9FreeCache
libXcomp.so.3:_ZN12EncodeBuffer17encodeNewXidValueEjRjR8IntCacheS2_R9FreeCache
libXcomp.so.3:_ZN12EncodeBuffer18encodeFreeXidValueEjR9FreeCache
libXcomp.so.3:_ZN12EncodeBuffer25encodePositionValueCompatEsR19PositionCacheCompat
libXcomp.so.3:_ZN12EncodeBuffer7setSizeEjjj
libXcomp.so.3:_ZN12EncodeBuffer8diffBitsEv
libXcomp.so.3:_ZN12EncodeBuffer9fullResetEv
libXcomp.so.3:_ZN12EncodeBufferC1Ev
libXcomp.so.3:_ZN12EncodeBufferC2Ev
libXcomp.so.3:_ZN12EncodeBufferD1Ev
libXcomp.so.3:_ZN12EncodeBufferD2Ev
libXcomp.so.3:_ZN12MessageStore10updateDataEPhj
libXcomp.so.3:_ZN12MessageStore10updateDataEiPKhjj
libXcomp.so.3:_ZN12MessageStore10updateDataEijj
libXcomp.so.3:_ZN12MessageStore11getChecksumEPKhji
libXcomp.so.3:_ZN12MessageStore11unparseDataEPK7MessagePhji
libXcomp.so.3:_ZN12MessageStore16printStorageSizeEv
libXcomp.so.3:_ZN12MessageStore3addEP7Messagei17T_checksum_action13T_data_action
libXcomp.so.3:_ZN12MessageStore5cleanE17T_checksum_action
libXcomp.so.3:_ZN12MessageStore5parseEP7MessagePKhjS3_j17T_checksum_action13T_data_actioni
libXcomp.so.3:_ZN12MessageStore5parseEP7MessageiPKhj17T_checksum_action13T_data_actioni
libXcomp.so.3:_ZN12MessageStore6removeEi17T_checksum_action13T_data_action
libXcomp.so.3:_ZN12MessageStore9findOrAddEP7Message17T_checksum_action13T_data_actionRiS4_
libXcomp.so.3:_ZN12MessageStore9loadStoreEPSiP11md5_state_s17T_checksum_action13T_data_actioni
libXcomp.so.3:_ZN12MessageStore9parseDataEP7MessagePKhjS3_j17T_checksum_action13T_data_actioni
libXcomp.so.3:_ZN12MessageStore9parseDataEP7MessageiPKhj17T_checksum_action13T_data_actioni
libXcomp.so.3:_ZN12MessageStore9saveStoreEPSoP11md5_state_sS2_17T_checksum_action13T_data_actioni
libXcomp.so.3:_ZN12MessageStoreC1EP16StaticCompressor
libXcomp.so.3:_ZN12MessageStoreC2EP16StaticCompressor
libXcomp.so.3:_ZN12MessageStoreD0Ev
libXcomp.so.3:_ZN12MessageStoreD1Ev
libXcomp.so.3:_ZN12MessageStoreD2Ev
libXcomp.so.3:_ZN13BlockCacheSet3getEjRjRPKh
libXcomp.so.3:_ZN13BlockCacheSet3setEjPKh
libXcomp.so.3:_ZN13BlockCacheSet6lookupEjPKhRj
libXcomp.so.3:_ZN13BlockCacheSetC1Ej
libXcomp.so.3:_ZN13BlockCacheSetC2Ej
libXcomp.so.3:_ZN13BlockCacheSetD1Ev
libXcomp.so.3:_ZN13BlockCacheSetD2Ev
libXcomp.so.3:_ZN13ClientChannel10handleReadER12EncodeBufferPKhj
libXcomp.so.3:_ZN13ClientChannel11handleSplitER12EncodeBuffer
libXcomp.so.3:_ZN13ClientChannel11handleSplitER12EncodeBufferP12MessageStore14T_store_actionihPKhj
libXcomp.so.3:_ZN13ClientChannel11handleWriteEPKhj
libXcomp.so.3:_ZN13ClientChannel12handleFinishEv
libXcomp.so.3:_ZN13ClientChannel12handleNotifyE19T_notification_typeNS_15T_sequence_modeEiii
libXcomp.so.3:_ZN13ClientChannel12setBigEndianEi
libXcomp.so.3:_ZN13ClientChannel13handleRestartENS_15T_sequence_modeEi
libXcomp.so.3:_ZN13ClientChannel13setReferencesEv
libXcomp.so.3:_ZN13ClientChannel15handleFontReplyER12DecodeBufferRhRPhRj
libXcomp.so.3:_ZN13ClientChannel15handleSplitFindEPhi
libXcomp.so.3:_ZN13ClientChannel15handleSplitSendER12EncodeBufferiRiS2_
libXcomp.so.3:_ZN13ClientChannel16handleShmemReplyER12DecodeBufferRhRPhRj
libXcomp.so.3:_ZN13ClientChannel16handleSplitEventER12DecodeBuffer
libXcomp.so.3:_ZN13ClientChannel16handleSplitEventER12EncodeBufferP5Split
libXcomp.so.3:_ZN13ClientChannel17handleFontRequestER12EncodeBufferhPKhj
libXcomp.so.3:_ZN13ClientChannel18handleCacheRequestER12EncodeBufferhPKhj
libXcomp.so.3:_ZN13ClientChannel18handleShmemRequestER12EncodeBufferhPKhj
libXcomp.so.3:_ZN13ClientChannel18handleSplitPendingEv
libXcomp.so.3:_ZN13ClientChannel19handleConfigurationEv
libXcomp.so.3:_ZN13ClientChannel19handleSplitChecksumER12EncodeBufferPh
libXcomp.so.3:_ZN13ClientChannel20handleDecodeCharInfoER12DecodeBufferPh
libXcomp.so.3:_ZN13ClientChannel20handleFastWriteEventER12DecodeBufferRhRPhRj
libXcomp.so.3:_ZN13ClientChannel20handleFastWriteReplyER12DecodeBufferRhRPhRj
libXcomp.so.3:_ZN13ClientChannel20handleTaintSyncErrorEh
libXcomp.so.3:_ZN13ClientChannel21handleEndSplitRequestER12EncodeBufferhPKhj
libXcomp.so.3:_ZN13ClientChannel21handleFastReadRequestER12EncodeBufferRKhRPS2_RKj
libXcomp.so.3:_ZN13ClientChannel22handleTaintFontRequestERhRPKhRj
libXcomp.so.3:_ZN13ClientChannel22handleTaintLameRequestERhRPKhRj
libXcomp.so.3:_ZN13ClientChannel22handleTaintSyncRequestERhRPKhRj
libXcomp.so.3:_ZN13ClientChannel23handleAbortSplitRequestER12EncodeBufferhPKhj
libXcomp.so.3:_ZN13ClientChannel23handleStartSplitRequestER12EncodeBufferhPKhj
libXcomp.so.3:_ZN13ClientChannel23handleTaintCacheRequestERhRPKhRj
libXcomp.so.3:_ZN13ClientChannel23handleTaintSplitRequestERhRPKhRj
libXcomp.so.3:_ZN13ClientChannel24handleCommitSplitRequestER12EncodeBufferhPKhj
libXcomp.so.3:_ZN13ClientChannel24handleFinishSplitRequestER12EncodeBufferhPKhj
libXcomp.so.3:_ZN13ClientChannelC1EP9TransportP16StaticCompressor
libXcomp.so.3:_ZN13ClientChannelC2EP9TransportP16StaticCompressor
libXcomp.so.3:_ZN13ClientChannelD0Ev
libXcomp.so.3:_ZN13ClientChannelD1Ev
libXcomp.so.3:_ZN13ClientChannelD2Ev
libXcomp.so.3:_ZN13PutImageStoreC1EP16StaticCompressor
libXcomp.so.3:_ZN13PutImageStoreC2EP16StaticCompressor
libXcomp.so.3:_ZN13PutImageStoreD0Ev
libXcomp.so.3:_ZN13PutImageStoreD1Ev
libXcomp.so.3:_ZN13PutImageStoreD2Ev
libXcomp.so.3:_ZN13SequenceQueue3popERtRhRjS2_S2_
libXcomp.so.3:_ZN13SequenceQueue4peekERtRh
libXcomp.so.3:_ZN13SequenceQueue4peekERtRhRjS2_S2_
libXcomp.so.3:_ZN13SequenceQueue4pushEthjjj
libXcomp.so.3:_ZN13SequenceQueueC1Ev
libXcomp.so.3:_ZN13SequenceQueueC2Ev
libXcomp.so.3:_ZN13SequenceQueueD0Ev
libXcomp.so.3:_ZN13SequenceQueueD1Ev
libXcomp.so.3:_ZN13SequenceQueueD2Ev
libXcomp.so.3:_ZN13ServerChannel10handleReadER12EncodeBufferPKhj
libXcomp.so.3:_ZN13ServerChannel11handleAlphaERhRPhRj
libXcomp.so.3:_ZN13ServerChannel11handleImageERhRPhRj
libXcomp.so.3:_ZN13ServerChannel11handleShmemERhRPhRj
libXcomp.so.3:_ZN13ServerChannel11handleSplitER12DecodeBuffer
libXcomp.so.3:_ZN13ServerChannel11handleSplitER12DecodeBufferP12MessageStore14T_store_actioniRhRPhRj
libXcomp.so.3:_ZN13ServerChannel11handleWriteEPKhj
libXcomp.so.3:_ZN13ServerChannel12handleFinishEv
libXcomp.so.3:_ZN13ServerChannel12handleMotionER12EncodeBuffer
libXcomp.so.3:_ZN13ServerChannel12handleUnpackERhRPhRj
libXcomp.so.3:_ZN13ServerChannel12setBigEndianEi
libXcomp.so.3:_ZN13ServerChannel13setReferencesEv
libXcomp.so.3:_ZN13ServerChannel14handleColormapERhRPhRj
libXcomp.so.3:_ZN13ServerChannel14handleGeometryERhRPhRj
libXcomp.so.3:_ZN13ServerChannel15checkShmemErrorEhtPKh
libXcomp.so.3:_ZN13ServerChannel15checkShmemEventEhtPKh
libXcomp.so.3:_ZN13ServerChannel15handleFontReplyER12EncodeBufferhPKhj
libXcomp.so.3:_ZN13ServerChannel15initCommitQueueEv
libXcomp.so.3:_ZN13ServerChannel16checkCommitErrorEhtPKh
libXcomp.so.3:_ZN13ServerChannel16handleShmemEventEv
libXcomp.so.3:_ZN13ServerChannel16handleShmemReplyER12EncodeBufferhjPKhj
libXcomp.so.3:_ZN13ServerChannel16handleSplitEventER12EncodeBufferP5Split
libXcomp.so.3:_ZN13ServerChannel17handleAsyncEventsEv
libXcomp.so.3:_ZN13ServerChannel17handleFontRequestER12DecodeBufferRhRPhRj
libXcomp.so.3:_ZN13ServerChannel17updateCommitQueueEt
libXcomp.so.3:_ZN13ServerChannel18checkKeyboardEventEhtPKh
libXcomp.so.3:_ZN13ServerChannel18handleCacheRequestER12DecodeBufferRhRPhRj
libXcomp.so.3:_ZN13ServerChannel18handleShmemRequestER12DecodeBufferRhRPhRj
libXcomp.so.3:_ZN13ServerChannel19handleAuthorizationEPKhi
libXcomp.so.3:_ZN13ServerChannel19handleAuthorizationEPh
libXcomp.so.3:_ZN13ServerChannel19handleConfigurationEv
libXcomp.so.3:_ZN13ServerChannel19handleFastReadEventER12EncodeBufferRKhRPS2_RKj
libXcomp.so.3:_ZN13ServerChannel19handleFastReadReplyER12EncodeBufferRKhRPS2_RKj
libXcomp.so.3:_ZN13ServerChannel19handleSplitChecksumER12DecodeBufferRPh
libXcomp.so.3:_ZN13ServerChannel20handleEncodeCharInfoEPKhR12EncodeBuffer
libXcomp.so.3:_ZN13ServerChannel21handleEndSplitRequestER12DecodeBufferRhRPhRj
libXcomp.so.3:_ZN13ServerChannel21handleShmemStateAllocEv
libXcomp.so.3:_ZN13ServerChannel21handleUnpackStateInitEi
libXcomp.so.3:_ZN13ServerChannel22handleFastWriteRequestER12DecodeBufferRhRPhRj
libXcomp.so.3:_ZN13ServerChannel22handleShmemStateRemoveEv
libXcomp.so.3:_ZN13ServerChannel22handleUnpackAllocAlphaEi
libXcomp.so.3:_ZN13ServerChannel23handleAbortSplitRequestER12DecodeBufferRhRPhRj
libXcomp.so.3:_ZN13ServerChannel23handleStartSplitRequestER12DecodeBufferRhRPhRj
libXcomp.so.3:_ZN13ServerChannel23handleUnpackStateRemoveEi
libXcomp.so.3:_ZN13ServerChannel24handleCommitSplitRequestER12DecodeBufferRhRPhRj
libXcomp.so.3:_ZN13ServerChannel25handleUnpackAllocColormapEi
libXcomp.so.3:_ZN13ServerChannel25handleUnpackAllocGeometryEi
libXcomp.so.3:_ZN13ServerChannelC1EP9TransportP16StaticCompressor
libXcomp.so.3:_ZN13ServerChannelC2EP9TransportP16StaticCompressor
libXcomp.so.3:_ZN13ServerChannelD0Ev
libXcomp.so.3:_ZN13ServerChannelD1Ev
libXcomp.so.3:_ZN13ServerChannelD2Ev
libXcomp.so.3:_ZN14AgentTransport10dequeuableEv
libXcomp.so.3:_ZN14AgentTransport10getPendingERPh
libXcomp.so.3:_ZN14AgentTransport4readEPhj
libXcomp.so.3:_ZN14AgentTransport5drainEii
libXcomp.so.3:_ZN14AgentTransport5flushEv
libXcomp.so.3:_ZN14AgentTransport5writeE7T_writePKhj
libXcomp.so.3:_ZN14AgentTransport7dequeueEPci
libXcomp.so.3:_ZN14AgentTransport7enqueueEPKci
libXcomp.so.3:_ZN14AgentTransport9fullResetEv
libXcomp.so.3:_ZN14AgentTransportC1Ei
libXcomp.so.3:_ZN14AgentTransportC2Ei
libXcomp.so.3:_ZN14AgentTransportD0Ev
libXcomp.so.3:_ZN14AgentTransportD1Ev
libXcomp.so.3:_ZN14AgentTransportD2Ev
libXcomp.so.3:_ZN14GenericChannel10handleReadER12EncodeBufferPKhj
libXcomp.so.3:_ZN14GenericChannel11handleWriteEPKhj
libXcomp.so.3:_ZN14GenericChannel12handleFinishEv
libXcomp.so.3:_ZN14GenericChannel13setReferencesEv
libXcomp.so.3:_ZN14GenericChannel16handleCompletionER12EncodeBuffer
libXcomp.so.3:_ZN14GenericChannel19handleConfigurationEv
libXcomp.so.3:_ZN14GenericChannelC1EP9TransportP16StaticCompressor
libXcomp.so.3:_ZN14GenericChannelC2EP9TransportP16StaticCompressor
libXcomp.so.3:_ZN14GenericChannelD0Ev
libXcomp.so.3:_ZN14GenericChannelD1Ev
libXcomp.so.3:_ZN14GenericChannelD2Ev
libXcomp.so.3:_ZN14ProxyTransport10getPendingERPh
libXcomp.so.3:_ZN14ProxyTransport4readEPhj
libXcomp.so.3:_ZN14ProxyTransport5flushEv
libXcomp.so.3:_ZN14ProxyTransport5writeE7T_writePKhj
libXcomp.so.3:_ZN14ProxyTransport9fullResetEv
libXcomp.so.3:_ZN14ProxyTransportC1Ei
libXcomp.so.3:_ZN14ProxyTransportC2Ei
libXcomp.so.3:_ZN14ProxyTransportD0Ev
libXcomp.so.3:_ZN14ProxyTransportD1Ev
libXcomp.so.3:_ZN14ProxyTransportD2Ev
libXcomp.so.3:_ZN14TextCompressor10decodeCharER12DecodeBuffer
libXcomp.so.3:_ZN14TextCompressor10encodeCharEhR12EncodeBuffer
libXcomp.so.3:_ZN15ProxyReadBuffer13locateMessageEPKhS1_RjS2_S2_
libXcomp.so.3:_ZN15ProxyReadBuffer15suggestedLengthEj
libXcomp.so.3:_ZN16ClientReadBuffer13locateMessageEPKhS1_RjS2_S2_
libXcomp.so.3:_ZN16ClientReadBuffer15suggestedLengthEj
libXcomp.so.3:_ZN16ServerReadBuffer11peekMessageERjht
libXcomp.so.3:_ZN16ServerReadBuffer13locateMessageEPKhS1_RjS2_S2_
libXcomp.so.3:_ZN16ServerReadBuffer15suggestedLengthEj
libXcomp.so.3:_ZN16StaticCompressor14compressBufferEPKhjRPhRj
libXcomp.so.3:_ZN16StaticCompressor14compressBufferEPKhjRPhRjR12EncodeBuffer
libXcomp.so.3:_ZN16StaticCompressor16decompressBufferEPhjPKhj
libXcomp.so.3:_ZN16StaticCompressor16decompressBufferEPhjRPKhRjR12DecodeBuffer
libXcomp.so.3:_ZN16StaticCompressorC1Eii
libXcomp.so.3:_ZN16StaticCompressorC2Eii
libXcomp.so.3:_ZN16StaticCompressorD1Ev
libXcomp.so.3:_ZN16StaticCompressorD2Ev
libXcomp.so.3:_ZN17CreatePixmapStoreC1Ev
libXcomp.so.3:_ZN17CreatePixmapStoreC2Ev
libXcomp.so.3:_ZN17CreatePixmapStoreD0Ev
libXcomp.so.3:_ZN17CreatePixmapStoreD1Ev
libXcomp.so.3:_ZN17CreatePixmapStoreD2Ev
libXcomp.so.3:_ZN17GenericReadBuffer13locateMessageEPKhS1_RjS2_S2_
libXcomp.so.3:_ZN17GenericReadBuffer15suggestedLengthEj
libXcomp.so.3:_ZN17GenericReplyStoreC1EP16StaticCompressor
libXcomp.so.3:_ZN17GenericReplyStoreC2EP16StaticCompressor
libXcomp.so.3:_ZN17GenericReplyStoreD0Ev
libXcomp.so.3:_ZN17GenericReplyStoreD1Ev
libXcomp.so.3:_ZN17GenericReplyStoreD2Ev
libXcomp.so.3:_ZN18GetImageReplyStoreC1EP16StaticCompressor
libXcomp.so.3:_ZN18GetImageReplyStoreC2EP16StaticCompressor
libXcomp.so.3:_ZN18GetImageReplyStoreD0Ev
libXcomp.so.3:_ZN18GetImageReplyStoreD1Ev
libXcomp.so.3:_ZN18GetImageReplyStoreD2Ev
libXcomp.so.3:_ZN19GenericRequestStoreC1EP16StaticCompressor
libXcomp.so.3:_ZN19GenericRequestStoreC2EP16StaticCompressor
libXcomp.so.3:_ZN19GenericRequestStoreD0Ev
libXcomp.so.3:_ZN19GenericRequestStoreD1Ev
libXcomp.so.3:_ZN19GenericRequestStoreD2Ev
libXcomp.so.3:_ZN19ListFontsReplyStoreC1EP16StaticCompressor
libXcomp.so.3:_ZN19ListFontsReplyStoreC2EP16StaticCompressor
libXcomp.so.3:_ZN19ListFontsReplyStoreD0Ev
libXcomp.so.3:_ZN19ListFontsReplyStoreD1Ev
libXcomp.so.3:_ZN19ListFontsReplyStoreD2Ev
libXcomp.so.3:_ZN19PositionCacheCompatC1Ev
libXcomp.so.3:_ZN19PositionCacheCompatC2Ev
libXcomp.so.3:_ZN19PositionCacheCompatD1Ev
libXcomp.so.3:_ZN19PositionCacheCompatD2Ev
libXcomp.so.3:_ZN19PutPackedImageStoreC1EP16StaticCompressor
libXcomp.so.3:_ZN19PutPackedImageStoreC2EP16StaticCompressor
libXcomp.so.3:_ZN19PutPackedImageStoreD0Ev
libXcomp.so.3:_ZN19PutPackedImageStoreD1Ev
libXcomp.so.3:_ZN19PutPackedImageStoreD2Ev
libXcomp.so.3:_ZN19QueryFontReplyStoreC1EP16StaticCompressor
libXcomp.so.3:_ZN19QueryFontReplyStoreC2EP16StaticCompressor
libXcomp.so.3:_ZN19QueryFontReplyStoreD0Ev
libXcomp.so.3:_ZN19QueryFontReplyStoreD1Ev
libXcomp.so.3:_ZN19QueryFontReplyStoreD2Ev
libXcomp.so.3:_ZN19SetUnpackAlphaStoreC1EP16StaticCompressor
libXcomp.so.3:_ZN19SetUnpackAlphaStoreC2EP16StaticCompressor
libXcomp.so.3:_ZN19SetUnpackAlphaStoreD0Ev
libXcomp.so.3:_ZN19SetUnpackAlphaStoreD1Ev
libXcomp.so.3:_ZN19SetUnpackAlphaStoreD2Ev
libXcomp.so.3:_ZN19ShapeExtensionStoreC1EP16StaticCompressor
libXcomp.so.3:_ZN19ShapeExtensionStoreC2EP16StaticCompressor
libXcomp.so.3:_ZN19ShapeExtensionStoreD0Ev
libXcomp.so.3:_ZN19ShapeExtensionStoreD1Ev
libXcomp.so.3:_ZN19ShapeExtensionStoreD2Ev
libXcomp.so.3:_ZN20RenderExtensionStore12identitySizeEPKhj
libXcomp.so.3:_ZN20RenderExtensionStore15validateMessageEPKhi
libXcomp.so.3:_ZN20RenderExtensionStoreC1EP16StaticCompressor
libXcomp.so.3:_ZN20RenderExtensionStoreC2EP16StaticCompressor
libXcomp.so.3:_ZN20RenderExtensionStoreD0Ev
libXcomp.so.3:_ZN20RenderExtensionStoreD1Ev
libXcomp.so.3:_ZN20RenderExtensionStoreD2Ev
libXcomp.so.3:_ZN21GetPropertyReplyStoreC1EP16StaticCompressor
libXcomp.so.3:_ZN21GetPropertyReplyStoreC2EP16StaticCompressor
libXcomp.so.3:_ZN21GetPropertyReplyStoreD0Ev
libXcomp.so.3:_ZN21GetPropertyReplyStoreD1Ev
libXcomp.so.3:_ZN21GetPropertyReplyStoreD2Ev
libXcomp.so.3:_ZN22SetUnpackColormapStoreC1EP16StaticCompressor
libXcomp.so.3:_ZN22SetUnpackColormapStoreC2EP16StaticCompressor
libXcomp.so.3:_ZN22SetUnpackColormapStoreD0Ev
libXcomp.so.3:_ZN22SetUnpackColormapStoreD1Ev
libXcomp.so.3:_ZN22SetUnpackColormapStoreD2Ev
libXcomp.so.3:_ZN22SetUnpackGeometryStoreC1EP16StaticCompressor
libXcomp.so.3:_ZN22SetUnpackGeometryStoreC2EP16StaticCompressor
libXcomp.so.3:_ZN22SetUnpackGeometryStoreD0Ev
libXcomp.so.3:_ZN22SetUnpackGeometryStoreD1Ev
libXcomp.so.3:_ZN22SetUnpackGeometryStoreD2Ev
libXcomp.so.3:_ZN23CreatePixmapCompatStoreC1Ev
libXcomp.so.3:_ZN23CreatePixmapCompatStoreC2Ev
libXcomp.so.3:_ZN23CreatePixmapCompatStoreD0Ev
libXcomp.so.3:_ZN23CreatePixmapCompatStoreD1Ev
libXcomp.so.3:_ZN23CreatePixmapCompatStoreD2Ev
libXcomp.so.3:_ZN25SetUnpackAlphaCompatStoreC1EP16StaticCompressor
libXcomp.so.3:_ZN25SetUnpackAlphaCompatStoreC2EP16StaticCompressor
libXcomp.so.3:_ZN25SetUnpackAlphaCompatStoreD0Ev
libXcomp.so.3:_ZN25SetUnpackAlphaCompatStoreD1Ev
libXcomp.so.3:_ZN25SetUnpackAlphaCompatStoreD2Ev
libXcomp.so.3:_ZN28SetUnpackColormapCompatStoreC1EP16StaticCompressor
libXcomp.so.3:_ZN28SetUnpackColormapCompatStoreC2EP16StaticCompressor
libXcomp.so.3:_ZN28SetUnpackColormapCompatStoreD0Ev
libXcomp.so.3:_ZN28SetUnpackColormapCompatStoreD1Ev
libXcomp.so.3:_ZN28SetUnpackColormapCompatStoreD2Ev
libXcomp.so.3:_ZN4Auth11checkCookieEPh
libXcomp.so.3:_ZN4Auth12updateCookieEv
libXcomp.so.3:_ZN4Auth14generateCookieEPc
libXcomp.so.3:_ZN4Auth14validateCookieEv
libXcomp.so.3:_ZN4Auth9getCookieEv
libXcomp.so.3:_ZN4AuthC1EPcS0_
libXcomp.so.3:_ZN4AuthC2EPcS0_
libXcomp.so.3:_ZN4AuthD1Ev
libXcomp.so.3:_ZN4AuthD2Ev
libXcomp.so.3:_ZN4FileC1Ev
libXcomp.so.3:_ZN4FileC2Ev
libXcomp.so.3:_ZN4FileD1Ev
libXcomp.so.3:_ZN4FileD2Ev
libXcomp.so.3:_ZN4List6removeEi
libXcomp.so.3:_ZN4List6rotateEv
libXcomp.so.3:_ZN4ListC1Ev
libXcomp.so.3:_ZN4ListC2Ev
libXcomp.so.3:_ZN4ListD1Ev
libXcomp.so.3:_ZN4ListD2Ev
libXcomp.so.3:_ZN5AgentC1EPi
libXcomp.so.3:_ZN5AgentC2EPi
libXcomp.so.3:_ZN5AgentD1Ev
libXcomp.so.3:_ZN5AgentD2Ev
libXcomp.so.3:_ZN5Proxy10handleDropEi
libXcomp.so.3:_ZN5Proxy10handlePingEv
libXcomp.so.3:_ZN5Proxy10handleReadERiR6fd_set
libXcomp.so.3:_ZN5Proxy10handleReadEiPKci
libXcomp.so.3:_ZN5Proxy10handleReadEv
libXcomp.so.3:_ZN5Proxy11getChannelsE14T_channel_type
libXcomp.so.3:_ZN5Proxy11getTypeNameE14T_channel_type
libXcomp.so.3:_ZN5Proxy11handleAlertEi
libXcomp.so.3:_ZN5Proxy11handleDrainEv
libXcomp.so.3:_ZN5Proxy11handleFlushERiR6fd_set
libXcomp.so.3:_ZN5Proxy11handleFlushEi
libXcomp.so.3:_ZN5Proxy11handleFlushEv
libXcomp.so.3:_ZN5Proxy11handleFrameE12T_frame_type
libXcomp.so.3:_ZN5Proxy11handleTokenE12T_frame_type
libXcomp.so.3:_ZN5Proxy12handleEventsEv
libXcomp.so.3:_ZN5Proxy12handleFinishEi
libXcomp.so.3:_ZN5Proxy12handleFinishEv
libXcomp.so.3:_ZN5Proxy12handleSwitchEi
libXcomp.so.3:_ZN5Proxy13addTokenCodesERNS_13T_proxy_tokenE
libXcomp.so.3:_ZN5Proxy13handleControlE12T_proxy_codei
libXcomp.so.3:_ZN5Proxy14handleShutdownEv
libXcomp.so.3:_ZN5Proxy14setOperationalEv
libXcomp.so.3:_ZN5Proxy15addControlCodesE12T_proxy_codei
libXcomp.so.3:_ZN5Proxy15checkChannelMapEi
libXcomp.so.3:_ZN5Proxy15getComputerNameEv
libXcomp.so.3:_ZN5Proxy15setSplitTimeoutEi
libXcomp.so.3:_ZN5Proxy16assignChannelMapEii
libXcomp.so.3:_ZN5Proxy16decreaseChannelsEi
libXcomp.so.3:_ZN5Proxy16handleLoadStoresEv
libXcomp.so.3:_ZN5Proxy16handleResetAlertEv
libXcomp.so.3:_ZN5Proxy16handleResetFlushEv
libXcomp.so.3:_ZN5Proxy16handleSaveStoresEv
libXcomp.so.3:_ZN5Proxy16handleStatisticsEiPSo
libXcomp.so.3:_ZN5Proxy16increaseChannelsEi
libXcomp.so.3:_ZN5Proxy16setMotionTimeoutEi
libXcomp.so.3:_ZN5Proxy17allocateTransportEii
libXcomp.so.3:_ZN5Proxy17cleanupChannelMapEi
libXcomp.so.3:_ZN5Proxy17handleNegotiationEPKhj
libXcomp.so.3:_ZN5Proxy17handleResetStoresEv
libXcomp.so.3:_ZN5Proxy18allocateChannelMapEi
libXcomp.so.3:_ZN5Proxy18setReadDescriptorsEP6fd_setRiR7timeval
libXcomp.so.3:_ZN5Proxy19deallocateTransportEi
libXcomp.so.3:_ZN5Proxy19handleDropFromProxyEi
libXcomp.so.3:_ZN5Proxy19handleSyncFromProxyEi
libXcomp.so.3:_ZN5Proxy19setWriteDescriptorsEP6fd_setRiR7timeval
libXcomp.so.3:_ZN5Proxy20handleTokenFromProxyERNS_13T_proxy_tokenEi
libXcomp.so.3:_ZN5Proxy21handleCloseConnectionEi
libXcomp.so.3:_ZN5Proxy21handleFinishFromProxyEi
libXcomp.so.3:_ZN5Proxy22handleControlFromProxyEPKh
libXcomp.so.3:_ZN5Proxy23handleCloseAllListenersEv
libXcomp.so.3:_ZN5Proxy23handleLinkConfigurationEv
libXcomp.so.3:_ZN5Proxy24handleCacheConfigurationEv
libXcomp.so.3:_ZN5Proxy24handleNewSlaveConnectionEi
libXcomp.so.3:_ZN5Proxy25handleSocketConfigurationEv
libXcomp.so.3:_ZN5Proxy25handleStatisticsFromProxyEPKhj
libXcomp.so.3:_ZN5Proxy25handleStatisticsFromProxyEi
libXcomp.so.3:_ZN5Proxy25handleTokenReplyFromProxyERNS_13T_proxy_tokenEi
libXcomp.so.3:_ZN5Proxy26handleChannelConfigurationEv
libXcomp.so.3:_ZN5Proxy26handleCloseAllXConnectionsEv
libXcomp.so.3:_ZN5Proxy26handleNegotiationFromProxyEPKhj
libXcomp.so.3:_ZN5Proxy26handleNewGenericConnectionEi14T_channel_typePKc
libXcomp.so.3:_ZN5Proxy26handleResetPersistentCacheEv
libXcomp.so.3:_ZN5Proxy29handlePostConnectionFromProxyEii14T_channel_typePKc
libXcomp.so.3:_ZN5Proxy33handleNewSlaveConnectionFromProxyEi
libXcomp.so.3:_ZN5Proxy35handleNewGenericConnectionFromProxyEi14T_channel_typePKcS2_S2_
libXcomp.so.3:_ZN5Proxy35handleNewGenericConnectionFromProxyEi14T_channel_typePKciS2_
libXcomp.so.3:_ZN5Proxy7getTypeEi
libXcomp.so.3:_ZN5ProxyC1Ei
libXcomp.so.3:_ZN5ProxyC2Ei
libXcomp.so.3:_ZN5ProxyD0Ev
libXcomp.so.3:_ZN5ProxyD1Ev
libXcomp.so.3:_ZN5ProxyD2Ev
libXcomp.so.3:_ZN5SplitC1Ev
libXcomp.so.3:_ZN5SplitC2Ev
libXcomp.so.3:_ZN5SplitD1Ev
libXcomp.so.3:_ZN5SplitD2Ev
libXcomp.so.3:_ZN6Keeper13cleanupCachesEv
libXcomp.so.3:_ZN6Keeper13cleanupImagesEv
libXcomp.so.3:_ZN6Keeper5emptyEv
libXcomp.so.3:_ZN6Keeper7cleanupEi
libXcomp.so.3:_ZN6Keeper7collectEPKc
libXcomp.so.3:_ZN6KeeperC1EiiPKcii
libXcomp.so.3:_ZN6KeeperC2EiiPKcii
libXcomp.so.3:_ZN6KeeperD1Ev
libXcomp.so.3:_ZN6KeeperD2Ev
libXcomp.so.3:_ZN7Channel10handleWaitEi
libXcomp.so.3:_ZN7Channel10setOpcodesEP11OpcodeStore
libXcomp.so.3:_ZN7Channel11handleDrainEii
libXcomp.so.3:_ZN7Channel11handleFlushE7T_flushii
libXcomp.so.3:_ZN7Channel11handleFlushEv
libXcomp.so.3:_ZN7Channel12handleDecodeER12DecodeBufferP12ChannelCacheP12MessageStoreRhRPhRj
libXcomp.so.3:_ZN7Channel12handleEncodeER12EncodeBufferP12ChannelCacheP12MessageStorehPKhj
libXcomp.so.3:_ZN7Channel13setReferencesEv
libXcomp.so.3:_ZN7Channel14handleCompressER12EncodeBufferhjPKhjRPhRj
libXcomp.so.3:_ZN7Channel15handleSaveAddedEP12MessageStoreiPhjPKhj
libXcomp.so.3:_ZN7Channel16handleCongestionEv
libXcomp.so.3:_ZN7Channel16handleDecompressER12DecodeBufferhjPhjRPKhRj
libXcomp.so.3:_ZN7Channel16handleResetAlertEv
libXcomp.so.3:_ZN7Channel17handleNullRequestERhRPhRj
libXcomp.so.3:_ZN7Channel17handleUpdateAddedEP12MessageStorejj
libXcomp.so.3:_ZN7Channel18handleDecodeCachedER12DecodeBufferP12ChannelCacheP12MessageStoreRPhRj
libXcomp.so.3:_ZN7Channel18handleEncodeCachedER12EncodeBufferP12ChannelCacheP12MessageStorePKhj
libXcomp.so.3:_ZN7Channel21handleSplitStoreAllocEP4Listi
libXcomp.so.3:_ZN7Channel21handleSplitStoreErrorEi
libXcomp.so.3:_ZN7Channel22handleSplitStoreRemoveEP4Listi
libXcomp.so.3:_ZN7Channel23handleSplitCommitRemoveEiii
libXcomp.so.3:_ZN7Channel25handleCleanAndNullRequestERhRPhRj
libXcomp.so.3:_ZN7Channel9setCachesEP11ClientCacheP11ServerCache
libXcomp.so.3:_ZN7Channel9setStoresEP11ClientStoreP11ServerStore
libXcomp.so.3:_ZN7ChannelC1EP9TransportP16StaticCompressor
libXcomp.so.3:_ZN7ChannelC2EP9TransportP16StaticCompressor
libXcomp.so.3:_ZN7ChannelD0Ev
libXcomp.so.3:_ZN7ChannelD1Ev
libXcomp.so.3:_ZN7ChannelD2Ev
libXcomp.so.3:_ZN7Control12getProtoStepEv
libXcomp.so.3:_ZN7Control12setProtoStepEi
libXcomp.so.3:_ZN7Control21setLocalUnpackMethodsEv
libXcomp.so.3:_ZN7ControlC1Ev
libXcomp.so.3:_ZN7ControlC2Ev
libXcomp.so.3:_ZN7ControlD1Ev
libXcomp.so.3:_ZN7ControlD2Ev
libXcomp.so.3:_ZN8IntCache4dumpEv
libXcomp.so.3:_ZN8IntCache4pushERjj
libXcomp.so.3:_ZN8IntCache6insertERjj
libXcomp.so.3:_ZN8IntCache6lookupERjS0_jS0_
libXcomp.so.3:_ZN8IntCacheC1Ej
libXcomp.so.3:_ZN8IntCacheC2Ej
libXcomp.so.3:_ZN8XidCacheC1Ev
libXcomp.so.3:_ZN8XidCacheC2Ev
libXcomp.so.3:_ZN8XidCacheD1Ev
libXcomp.so.3:_ZN8XidCacheD2Ev
libXcomp.so.3:_ZN9CharCache6insertEh
libXcomp.so.3:_ZN9CharCache6lookupEhRj
libXcomp.so.3:_ZN9Transport4readEPhj
libXcomp.so.3:_ZN9Transport5drainEii
libXcomp.so.3:_ZN9Transport5flushEv
libXcomp.so.3:_ZN9Transport5writeE7T_writePKhj
libXcomp.so.3:_ZN9Transport6resizeER8T_bufferRKi
libXcomp.so.3:_ZN9Transport7setSizeEjjj
libXcomp.so.3:_ZN9Transport9fullResetER8T_buffer
libXcomp.so.3:_ZN9Transport9fullResetEv
libXcomp.so.3:_ZN9TransportC1Ei
libXcomp.so.3:_ZN9TransportC2Ei
libXcomp.so.3:_ZN9TransportD0Ev
libXcomp.so.3:_ZN9TransportD1Ev
libXcomp.so.3:_ZN9TransportD2Ev
libXcomp.so.3:_ZNK11ClientProxy19handleLoadAllStoresEPSiP11md5_state_s
libXcomp.so.3:_ZNK11ClientProxy19handleSaveAllStoresEPSoP11md5_state_sS2_
libXcomp.so.3:_ZNK11ClientStore15dumpSplitStoresEv
libXcomp.so.3:_ZNK11ClientStore17loadRequestStoresEPSiP11md5_state_s17T_checksum_action13T_data_action
libXcomp.so.3:_ZNK11ClientStore17saveRequestStoresEPSoP11md5_state_sS2_17T_checksum_action13T_data_action
libXcomp.so.3:_ZNK11ServerProxy19handleLoadAllStoresEPSiP11md5_state_s
libXcomp.so.3:_ZNK11ServerProxy19handleSaveAllStoresEPSoP11md5_state_sS2_
libXcomp.so.3:_ZNK11ServerStore15loadEventStoresEPSiP11md5_state_s17T_checksum_action13T_data_action
libXcomp.so.3:_ZNK11ServerStore15loadReplyStoresEPSiP11md5_state_s17T_checksum_action13T_data_action
libXcomp.so.3:_ZNK11ServerStore15saveEventStoresEPSoP11md5_state_sS2_17T_checksum_action13T_data_action
libXcomp.so.3:_ZNK11ServerStore15saveReplyStoresEPSoP11md5_state_sS2_17T_checksum_action13T_data_action
libXcomp.so.3:_ZNK12EncodeBuffer9getLengthEv
libXcomp.so.3:_ZNK12MessageStore11storageSizeEPK7MessageRjS3_
libXcomp.so.3:_ZNK12MessageStore4lockEi
libXcomp.so.3:_ZNK12MessageStore5touchEP7Message
libXcomp.so.3:_ZNK12MessageStore6unlockEi
libXcomp.so.3:_ZNK12MessageStore7untouchEP7Message
libXcomp.so.3:_ZNK12MessageStore8dumpDataEPK7Message
libXcomp.so.3:_ZNK12MessageStore9getRatingEP7Message8T_rating
libXcomp.so.3:_ZNK12PolyArcStore12dumpIdentityEPK7Message
libXcomp.so.3:_ZNK12PolyArcStore13parseIdentityEP7MessagePKhji
libXcomp.so.3:_ZNK12PolyArcStore14updateIdentityER12DecodeBufferPK7MessageP12ChannelCache
libXcomp.so.3:_ZNK12PolyArcStore14updateIdentityER12EncodeBufferPK7MessageS4_P12ChannelCache
libXcomp.so.3:_ZNK12PolyArcStore15unparseIdentityEPK7MessagePhji
libXcomp.so.3:_ZNK12PolyArcStore16identityChecksumEPK7MessagePKhji
libXcomp.so.3:_ZNK13ChangeGCStore12dumpIdentityEPK7Message
libXcomp.so.3:_ZNK13ChangeGCStore13parseIdentityEP7MessagePKhji
libXcomp.so.3:_ZNK13ChangeGCStore14updateIdentityER12DecodeBufferPK7MessageP12ChannelCache
libXcomp.so.3:_ZNK13ChangeGCStore14updateIdentityER12EncodeBufferPK7MessageS4_P12ChannelCache
libXcomp.so.3:_ZNK13ChangeGCStore15unparseIdentityEPK7MessagePhji
libXcomp.so.3:_ZNK13ChangeGCStore16identityChecksumEPK7MessagePKhji
libXcomp.so.3:_ZNK13CopyAreaStore12dumpIdentityEPK7Message
libXcomp.so.3:_ZNK13CopyAreaStore13parseIdentityEP7MessagePKhji
libXcomp.so.3:_ZNK13CopyAreaStore14updateIdentityER12DecodeBufferPK7MessageP12ChannelCache
libXcomp.so.3:_ZNK13CopyAreaStore14updateIdentityER12EncodeBufferPK7MessageS4_P12ChannelCache
libXcomp.so.3:_ZNK13CopyAreaStore15unparseIdentityEPK7MessagePhji
libXcomp.so.3:_ZNK13CopyAreaStore16identityChecksumEPK7MessagePKhji
libXcomp.so.3:_ZNK13CreateGCStore12dumpIdentityEPK7Message
libXcomp.so.3:_ZNK13CreateGCStore13parseIdentityEP7MessagePKhji
libXcomp.so.3:_ZNK13CreateGCStore14updateIdentityER12DecodeBufferPK7MessageP12ChannelCache
libXcomp.so.3:_ZNK13CreateGCStore14updateIdentityER12EncodeBufferPK7MessageS4_P12ChannelCache
libXcomp.so.3:_ZNK13CreateGCStore15unparseIdentityEPK7MessagePhji
libXcomp.so.3:_ZNK13CreateGCStore16identityChecksumEPK7MessagePKhji
libXcomp.so.3:_ZNK13FillPolyStore12dumpIdentityEPK7Message
libXcomp.so.3:_ZNK13FillPolyStore13parseIdentityEP7MessagePKhji
libXcomp.so.3:_ZNK13FillPolyStore14updateIdentityER12DecodeBufferPK7MessageP12ChannelCache
libXcomp.so.3:_ZNK13FillPolyStore14updateIdentityER12EncodeBufferPK7MessageS4_P12ChannelCache
libXcomp.so.3:_ZNK13FillPolyStore15unparseIdentityEPK7MessagePhji
libXcomp.so.3:_ZNK13FillPolyStore16identityChecksumEPK7MessagePKhji
libXcomp.so.3:_ZNK13GetImageStore12dumpIdentityEPK7Message
libXcomp.so.3:_ZNK13GetImageStore13parseIdentityEP7MessagePKhji
libXcomp.so.3:_ZNK13GetImageStore14updateIdentityER12DecodeBufferPK7MessageP12ChannelCache
libXcomp.so.3:_ZNK13GetImageStore14updateIdentityER12EncodeBufferPK7MessageS4_P12ChannelCache
libXcomp.so.3:_ZNK13GetImageStore15unparseIdentityEPK7MessagePhji
libXcomp.so.3:_ZNK13GetImageStore16identityChecksumEPK7MessagePKhji
libXcomp.so.3:_ZNK13PolyLineStore12dumpIdentityEPK7Message
libXcomp.so.3:_ZNK13PolyLineStore13parseIdentityEP7MessagePKhji
libXcomp.so.3:_ZNK13PolyLineStore14updateIdentityER12DecodeBufferPK7MessageP12ChannelCache
libXcomp.so.3:_ZNK13PolyLineStore14updateIdentityER12EncodeBufferPK7MessageS4_P12ChannelCache
libXcomp.so.3:_ZNK13PolyLineStore15unparseIdentityEPK7MessagePhji
libXcomp.so.3:_ZNK13PolyLineStore16identityChecksumEPK7MessagePKhji
libXcomp.so.3:_ZNK13PutImageStore12dumpIdentityEPK7Message
libXcomp.so.3:_ZNK13PutImageStore13parseIdentityEP7MessagePKhji
libXcomp.so.3:_ZNK13PutImageStore14decodeIdentityER12DecodeBufferRPhRjiP11WriteBufferP12ChannelCache
libXcomp.so.3:_ZNK13PutImageStore14encodeIdentityER12EncodeBufferPKhjiP12ChannelCache
libXcomp.so.3:_ZNK13PutImageStore14updateIdentityER12DecodeBufferPK7MessageP12ChannelCache
libXcomp.so.3:_ZNK13PutImageStore14updateIdentityER12EncodeBufferPK7MessageS4_P12ChannelCache
libXcomp.so.3:_ZNK13PutImageStore15unparseIdentityEPK7MessagePhji
libXcomp.so.3:_ZNK13PutImageStore16identityChecksumEPK7MessagePKhji
libXcomp.so.3:_ZNK14ClearAreaStore12dumpIdentityEPK7Message
libXcomp.so.3:_ZNK14ClearAreaStore13parseIdentityEP7MessagePKhji
libXcomp.so.3:_ZNK14ClearAreaStore15unparseIdentityEPK7MessagePhji
libXcomp.so.3:_ZNK14ClearAreaStore16identityChecksumEPK7MessagePKhji
libXcomp.so.3:_ZNK14PolyPointStore12dumpIdentityEPK7Message
libXcomp.so.3:_ZNK14PolyPointStore13parseIdentityEP7MessagePKhji
libXcomp.so.3:_ZNK14PolyPointStore14updateIdentityER12DecodeBufferPK7MessageP12ChannelCache
libXcomp.so.3:_ZNK14PolyPointStore14updateIdentityER12EncodeBufferPK7MessageS4_P12ChannelCache
libXcomp.so.3:_ZNK14PolyPointStore15unparseIdentityEPK7MessagePhji
libXcomp.so.3:_ZNK14PolyPointStore16identityChecksumEPK7MessagePKhji
libXcomp.so.3:_ZNK14PolyText8Store12dumpIdentityEPK7Message
libXcomp.so.3:_ZNK14PolyText8Store13parseIdentityEP7MessagePKhji
libXcomp.so.3:_ZNK14PolyText8Store14updateIdentityER12DecodeBufferPK7MessageP12ChannelCache
libXcomp.so.3:_ZNK14PolyText8Store14updateIdentityER12EncodeBufferPK7MessageS4_P12ChannelCache
libXcomp.so.3:_ZNK14PolyText8Store15unparseIdentityEPK7MessagePhji
libXcomp.so.3:_ZNK14PolyText8Store16identityChecksumEPK7MessagePKhji
libXcomp.so.3:_ZNK14SendEventStore12dumpIdentityEPK7Message
libXcomp.so.3:_ZNK14SendEventStore13parseIdentityEP7MessagePKhji
libXcomp.so.3:_ZNK14SendEventStore14updateIdentityER12DecodeBufferPK7MessageP12ChannelCache
libXcomp.so.3:_ZNK14SendEventStore14updateIdentityER12EncodeBufferPK7MessageS4_P12ChannelCache
libXcomp.so.3:_ZNK14SendEventStore15unparseIdentityEPK7MessagePhji
libXcomp.so.3:_ZNK14SendEventStore16identityChecksumEPK7MessagePKhji
libXcomp.so.3:_ZNK15ImageText8Store12dumpIdentityEPK7Message
libXcomp.so.3:_ZNK15ImageText8Store13parseIdentityEP7MessagePKhji
libXcomp.so.3:_ZNK15ImageText8Store14updateIdentityER12DecodeBufferPK7MessageP12ChannelCache
libXcomp.so.3:_ZNK15ImageText8Store14updateIdentityER12EncodeBufferPK7MessageS4_P12ChannelCache
libXcomp.so.3:_ZNK15ImageText8Store15unparseIdentityEPK7MessagePhji
libXcomp.so.3:_ZNK15ImageText8Store16identityChecksumEPK7MessagePKhji
libXcomp.so.3:_ZNK15InternAtomStore12dumpIdentityEPK7Message
libXcomp.so.3:_ZNK15InternAtomStore13parseIdentityEP7MessagePKhji
libXcomp.so.3:_ZNK15InternAtomStore15unparseIdentityEPK7MessagePhji
libXcomp.so.3:_ZNK15InternAtomStore16identityChecksumEPK7MessagePKhji
libXcomp.so.3:_ZNK15PolyText16Store12dumpIdentityEPK7Message
libXcomp.so.3:_ZNK15PolyText16Store13parseIdentityEP7MessagePKhji
libXcomp.so.3:_ZNK15PolyText16Store14updateIdentityER12DecodeBufferPK7MessageP12ChannelCache
libXcomp.so.3:_ZNK15PolyText16Store14updateIdentityER12EncodeBufferPK7MessageS4_P12ChannelCache
libXcomp.so.3:_ZNK15PolyText16Store15unparseIdentityEPK7MessagePhji
libXcomp.so.3:_ZNK15PolyText16Store16identityChecksumEPK7MessagePKhji
libXcomp.so.3:_ZNK16GetPropertyStore12dumpIdentityEPK7Message
libXcomp.so.3:_ZNK16GetPropertyStore13parseIdentityEP7MessagePKhji
libXcomp.so.3:_ZNK16GetPropertyStore15unparseIdentityEPK7MessagePhji
libXcomp.so.3:_ZNK16GetPropertyStore16identityChecksumEPK7MessagePKhji
libXcomp.so.3:_ZNK16ImageText16Store12dumpIdentityEPK7Message
libXcomp.so.3:_ZNK16ImageText16Store13parseIdentityEP7MessagePKhji
libXcomp.so.3:_ZNK16ImageText16Store14updateIdentityER12DecodeBufferPK7MessageP12ChannelCache
libXcomp.so.3:_ZNK16ImageText16Store14updateIdentityER12EncodeBufferPK7MessageS4_P12ChannelCache
libXcomp.so.3:_ZNK16ImageText16Store15unparseIdentityEPK7MessagePhji
libXcomp.so.3:_ZNK16ImageText16Store16identityChecksumEPK7MessagePKhji
libXcomp.so.3:_ZNK16PolyFillArcStore12dumpIdentityEPK7Message
libXcomp.so.3:_ZNK16PolyFillArcStore13parseIdentityEP7MessagePKhji
libXcomp.so.3:_ZNK16PolyFillArcStore14updateIdentityER12DecodeBufferPK7MessageP12ChannelCache
libXcomp.so.3:_ZNK16PolyFillArcStore14updateIdentityER12EncodeBufferPK7MessageS4_P12ChannelCache
libXcomp.so.3:_ZNK16PolyFillArcStore15unparseIdentityEPK7MessagePhji
libXcomp.so.3:_ZNK16PolyFillArcStore16identityChecksumEPK7MessagePKhji
libXcomp.so.3:_ZNK16PolySegmentStore12dumpIdentityEPK7Message
libXcomp.so.3:_ZNK16PolySegmentStore13parseIdentityEP7MessagePKhji
libXcomp.so.3:_ZNK16PolySegmentStore14updateIdentityER12DecodeBufferPK7MessageP12ChannelCache
libXcomp.so.3:_ZNK16PolySegmentStore14updateIdentityER12EncodeBufferPK7MessageS4_P12ChannelCache
libXcomp.so.3:_ZNK16PolySegmentStore15unparseIdentityEPK7MessagePhji
libXcomp.so.3:_ZNK16PolySegmentStore16identityChecksumEPK7MessagePKhji
libXcomp.so.3:_ZNK17CreatePixmapStore12dumpIdentityEPK7Message
libXcomp.so.3:_ZNK17CreatePixmapStore13parseIdentityEP7MessagePKhji
libXcomp.so.3:_ZNK17CreatePixmapStore14decodeIdentityER12DecodeBufferRPhRjiP11WriteBufferP12ChannelCache
libXcomp.so.3:_ZNK17CreatePixmapStore14encodeIdentityER12EncodeBufferPKhjiP12ChannelCache
libXcomp.so.3:_ZNK17CreatePixmapStore14updateIdentityER12DecodeBufferPK7MessageP12ChannelCache
libXcomp.so.3:_ZNK17CreatePixmapStore14updateIdentityER12EncodeBufferPK7MessageS4_P12ChannelCache
libXcomp.so.3:_ZNK17CreatePixmapStore15unparseIdentityEPK7MessagePhji
libXcomp.so.3:_ZNK17CreatePixmapStore16identityChecksumEPK7MessagePKhji
libXcomp.so.3:_ZNK17GenericReplyStore12dumpIdentityEPK7Message
libXcomp.so.3:_ZNK17GenericReplyStore13parseIdentityEP7MessagePKhji
libXcomp.so.3:_ZNK17GenericReplyStore14decodeIdentityER12DecodeBufferRPhRjiP11WriteBufferP12ChannelCache
libXcomp.so.3:_ZNK17GenericReplyStore14encodeIdentityER12EncodeBufferPKhjiP12ChannelCache
libXcomp.so.3:_ZNK17GenericReplyStore14updateIdentityER12DecodeBufferPK7MessageP12ChannelCache
libXcomp.so.3:_ZNK17GenericReplyStore14updateIdentityER12EncodeBufferPK7MessageS4_P12ChannelCache
libXcomp.so.3:_ZNK17GenericReplyStore15unparseIdentityEPK7MessagePhji
libXcomp.so.3:_ZNK17GenericReplyStore16identityChecksumEPK7MessagePKhji
libXcomp.so.3:_ZNK18GetImageReplyStore12dumpIdentityEPK7Message
libXcomp.so.3:_ZNK18GetImageReplyStore13parseIdentityEP7MessagePKhji
libXcomp.so.3:_ZNK18GetImageReplyStore14updateIdentityER12DecodeBufferPK7MessageP12ChannelCache
libXcomp.so.3:_ZNK18GetImageReplyStore14updateIdentityER12EncodeBufferPK7MessageS4_P12ChannelCache
libXcomp.so.3:_ZNK18GetImageReplyStore15unparseIdentityEPK7MessagePhji
libXcomp.so.3:_ZNK18GetImageReplyStore16identityChecksumEPK7MessagePKhji
libXcomp.so.3:_ZNK19ChangeGCCompatStore12dumpIdentityEPK7Message
libXcomp.so.3:_ZNK19ChangeGCCompatStore13parseIdentityEP7MessagePKhji
libXcomp.so.3:_ZNK19ChangeGCCompatStore15unparseIdentityEPK7MessagePhji
libXcomp.so.3:_ZNK19ChangeGCCompatStore16identityChecksumEPK7MessagePKhji
libXcomp.so.3:_ZNK19ChangePropertyStore12dumpIdentityEPK7Message
libXcomp.so.3:_ZNK19ChangePropertyStore13parseIdentityEP7MessagePKhji
libXcomp.so.3:_ZNK19ChangePropertyStore14updateIdentityER12DecodeBufferPK7MessageP12ChannelCache
libXcomp.so.3:_ZNK19ChangePropertyStore14updateIdentityER12EncodeBufferPK7MessageS4_P12ChannelCache
libXcomp.so.3:_ZNK19ChangePropertyStore15unparseIdentityEPK7MessagePhji
libXcomp.so.3:_ZNK19ChangePropertyStore16identityChecksumEPK7MessagePKhji
libXcomp.so.3:_ZNK19GenericRequestStore12dumpIdentityEPK7Message
libXcomp.so.3:_ZNK19GenericRequestStore13parseIdentityEP7MessagePKhji
libXcomp.so.3:_ZNK19GenericRequestStore14decodeIdentityER12DecodeBufferRPhRjiP11WriteBufferP12ChannelCache
libXcomp.so.3:_ZNK19GenericRequestStore14encodeIdentityER12EncodeBufferPKhjiP12ChannelCache
libXcomp.so.3:_ZNK19GenericRequestStore14updateIdentityER12DecodeBufferPK7MessageP12ChannelCache
libXcomp.so.3:_ZNK19GenericRequestStore14updateIdentityER12EncodeBufferPK7MessageS4_P12ChannelCache
libXcomp.so.3:_ZNK19GenericRequestStore15unparseIdentityEPK7MessagePhji
libXcomp.so.3:_ZNK19GenericRequestStore16identityChecksumEPK7MessagePKhji
libXcomp.so.3:_ZNK19ListFontsReplyStore12dumpIdentityEPK7Message
libXcomp.so.3:_ZNK19ListFontsReplyStore13parseIdentityEP7MessagePKhji
libXcomp.so.3:_ZNK19ListFontsReplyStore15unparseIdentityEPK7MessagePhji
libXcomp.so.3:_ZNK19ListFontsReplyStore16identityChecksumEPK7MessagePKhji
libXcomp.so.3:_ZNK19PutPackedImageStore12dumpIdentityEPK7Message
libXcomp.so.3:_ZNK19PutPackedImageStore13parseIdentityEP7MessagePKhji
libXcomp.so.3:_ZNK19PutPackedImageStore14decodeIdentityER12DecodeBufferRPhRjiP11WriteBufferP12ChannelCache
libXcomp.so.3:_ZNK19PutPackedImageStore14encodeIdentityER12EncodeBufferPKhjiP12ChannelCache
libXcomp.so.3:_ZNK19PutPackedImageStore14updateIdentityER12DecodeBufferPK7MessageP12ChannelCache
libXcomp.so.3:_ZNK19PutPackedImageStore14updateIdentityER12EncodeBufferPK7MessageS4_P12ChannelCache
libXcomp.so.3:_ZNK19PutPackedImageStore15unparseIdentityEPK7MessagePhji
libXcomp.so.3:_ZNK19PutPackedImageStore16identityChecksumEPK7MessagePKhji
libXcomp.so.3:_ZNK19QueryFontReplyStore12dumpIdentityEPK7Message
libXcomp.so.3:_ZNK19QueryFontReplyStore13parseIdentityEP7MessagePKhji
libXcomp.so.3:_ZNK19QueryFontReplyStore15unparseIdentityEPK7MessagePhji
libXcomp.so.3:_ZNK19QueryFontReplyStore16identityChecksumEPK7MessagePKhji
libXcomp.so.3:_ZNK19SetUnpackAlphaStore12dumpIdentityEPK7Message
libXcomp.so.3:_ZNK19SetUnpackAlphaStore13parseIdentityEP7MessagePKhji
libXcomp.so.3:_ZNK19SetUnpackAlphaStore14decodeIdentityER12DecodeBufferRPhRjiP11WriteBufferP12ChannelCache
libXcomp.so.3:_ZNK19SetUnpackAlphaStore14encodeIdentityER12EncodeBufferPKhjiP12ChannelCache
libXcomp.so.3:_ZNK19SetUnpackAlphaStore14updateIdentityER12DecodeBufferPK7MessageP12ChannelCache
libXcomp.so.3:_ZNK19SetUnpackAlphaStore14updateIdentityER12EncodeBufferPK7MessageS4_P12ChannelCache
libXcomp.so.3:_ZNK19SetUnpackAlphaStore15unparseIdentityEPK7MessagePhji
libXcomp.so.3:_ZNK19SetUnpackAlphaStore16identityChecksumEPK7MessagePKhji
libXcomp.so.3:_ZNK19ShapeExtensionStore12dumpIdentityEPK7Message
libXcomp.so.3:_ZNK19ShapeExtensionStore13parseIdentityEP7MessagePKhji
libXcomp.so.3:_ZNK19ShapeExtensionStore14decodeIdentityER12DecodeBufferRPhRjiP11WriteBufferP12ChannelCache
libXcomp.so.3:_ZNK19ShapeExtensionStore14encodeIdentityER12EncodeBufferPKhjiP12ChannelCache
libXcomp.so.3:_ZNK19ShapeExtensionStore14updateIdentityER12DecodeBufferPK7MessageP12ChannelCache
libXcomp.so.3:_ZNK19ShapeExtensionStore14updateIdentityER12EncodeBufferPK7MessageS4_P12ChannelCache
libXcomp.so.3:_ZNK19ShapeExtensionStore15unparseIdentityEPK7MessagePhji
libXcomp.so.3:_ZNK19ShapeExtensionStore16identityChecksumEPK7MessagePKhji
libXcomp.so.3:_ZNK20ConfigureWindowStore12dumpIdentityEPK7Message
libXcomp.so.3:_ZNK20ConfigureWindowStore13parseIdentityEP7MessagePKhji
libXcomp.so.3:_ZNK20ConfigureWindowStore15unparseIdentityEPK7MessagePhji
libXcomp.so.3:_ZNK20ConfigureWindowStore16identityChecksumEPK7MessagePKhji
libXcomp.so.3:_ZNK20RenderAddGlyphsStore10decodeDataER12DecodeBufferPhjiP12ChannelCache
libXcomp.so.3:_ZNK20RenderAddGlyphsStore10decodeSizeER12DecodeBufferRPhRjhiP11WriteBufferP12ChannelCache
libXcomp.so.3:_ZNK20RenderAddGlyphsStore10encodeDataER12EncodeBufferPKhjiP12ChannelCache
libXcomp.so.3:_ZNK20RenderAddGlyphsStore10encodeSizeER12EncodeBufferPKhjiP12ChannelCache
libXcomp.so.3:_ZNK20RenderAddGlyphsStore13decodeMessageER12DecodeBufferRPhRjhiP11WriteBufferP12ChannelCache
libXcomp.so.3:_ZNK20RenderAddGlyphsStore13encodeMessageER12EncodeBufferPKhjiP12ChannelCache
libXcomp.so.3:_ZNK20RenderAddGlyphsStore13parseIdentityEP7MessagePKhji
libXcomp.so.3:_ZNK20RenderAddGlyphsStore14updateIdentityER12DecodeBufferPK7MessageP12ChannelCache
libXcomp.so.3:_ZNK20RenderAddGlyphsStore14updateIdentityER12EncodeBufferPK7MessageS4_P12ChannelCache
libXcomp.so.3:_ZNK20RenderAddGlyphsStore15unparseIdentityEPK7MessagePhji
libXcomp.so.3:_ZNK20RenderAddGlyphsStore16identityChecksumEPK7MessagePKhjP11md5_state_si
libXcomp.so.3:_ZNK20RenderCompositeStore13decodeMessageER12DecodeBufferRPhRjhiP11WriteBufferP12ChannelCache
libXcomp.so.3:_ZNK20RenderCompositeStore13encodeMessageER12EncodeBufferPKhjiP12ChannelCache
libXcomp.so.3:_ZNK20RenderCompositeStore13parseIdentityEP7MessagePKhji
libXcomp.so.3:_ZNK20RenderCompositeStore14updateIdentityER12DecodeBufferPK7MessageP12ChannelCache
libXcomp.so.3:_ZNK20RenderCompositeStore14updateIdentityER12EncodeBufferPK7MessageS4_P12ChannelCache
libXcomp.so.3:_ZNK20RenderCompositeStore15unparseIdentityEPK7MessagePhji
libXcomp.so.3:_ZNK20RenderCompositeStore16identityChecksumEPK7MessagePKhjP11md5_state_si
libXcomp.so.3:_ZNK20RenderExtensionStore12dumpIdentityEPK7Message
libXcomp.so.3:_ZNK20RenderExtensionStore13parseIdentityEP7MessagePKhji
libXcomp.so.3:_ZNK20RenderExtensionStore14decodeIdentityER12DecodeBufferRPhRjiP11WriteBufferP12ChannelCache
libXcomp.so.3:_ZNK20RenderExtensionStore14encodeIdentityER12EncodeBufferPKhjiP12ChannelCache
libXcomp.so.3:_ZNK20RenderExtensionStore14updateIdentityER12DecodeBufferPK7MessageP12ChannelCache
libXcomp.so.3:_ZNK20RenderExtensionStore14updateIdentityER12EncodeBufferPK7MessageS4_P12ChannelCache
libXcomp.so.3:_ZNK20RenderExtensionStore15unparseIdentityEPK7MessagePhji
libXcomp.so.3:_ZNK20RenderExtensionStore16identityChecksumEPK7MessagePKhji
libXcomp.so.3:_ZNK20RenderTrianglesStore10decodeDataER12DecodeBufferPhjiP12ChannelCache
libXcomp.so.3:_ZNK20RenderTrianglesStore10decodeSizeER12DecodeBufferRPhRjhiP11WriteBufferP12ChannelCache
libXcomp.so.3:_ZNK20RenderTrianglesStore10encodeDataER12EncodeBufferPKhjiP12ChannelCache
libXcomp.so.3:_ZNK20RenderTrianglesStore10encodeSizeER12EncodeBufferPKhjiP12ChannelCache
libXcomp.so.3:_ZNK20RenderTrianglesStore13decodeMessageER12DecodeBufferRPhRjhiP11WriteBufferP12ChannelCache
libXcomp.so.3:_ZNK20RenderTrianglesStore13encodeMessageER12EncodeBufferPKhjiP12ChannelCache
libXcomp.so.3:_ZNK20RenderTrianglesStore13parseIdentityEP7MessagePKhji
libXcomp.so.3:_ZNK20RenderTrianglesStore14updateIdentityER12DecodeBufferPK7MessageP12ChannelCache
libXcomp.so.3:_ZNK20RenderTrianglesStore14updateIdentityER12EncodeBufferPK7MessageS4_P12ChannelCache
libXcomp.so.3:_ZNK20RenderTrianglesStore15unparseIdentityEPK7MessagePhji
libXcomp.so.3:_ZNK20RenderTrianglesStore16identityChecksumEPK7MessagePKhjP11md5_state_si
libXcomp.so.3:_ZNK20TranslateCoordsStore12dumpIdentityEPK7Message
libXcomp.so.3:_ZNK20TranslateCoordsStore13parseIdentityEP7MessagePKhji
libXcomp.so.3:_ZNK20TranslateCoordsStore15unparseIdentityEPK7MessagePhji
libXcomp.so.3:_ZNK20TranslateCoordsStore16identityChecksumEPK7MessagePKhji
libXcomp.so.3:_ZNK21GetPropertyReplyStore12dumpIdentityEPK7Message
libXcomp.so.3:_ZNK21GetPropertyReplyStore13parseIdentityEP7MessagePKhji
libXcomp.so.3:_ZNK21GetPropertyReplyStore14decodeIdentityER12DecodeBufferRPhRjiP11WriteBufferP12ChannelCache
libXcomp.so.3:_ZNK21GetPropertyReplyStore14encodeIdentityER12EncodeBufferPKhjiP12ChannelCache
libXcomp.so.3:_ZNK21GetPropertyReplyStore14updateIdentityER12DecodeBufferPK7MessageP12ChannelCache
libXcomp.so.3:_ZNK21GetPropertyReplyStore14updateIdentityER12EncodeBufferPK7MessageS4_P12ChannelCache
libXcomp.so.3:_ZNK21GetPropertyReplyStore15unparseIdentityEPK7MessagePhji
libXcomp.so.3:_ZNK21GetPropertyReplyStore16identityChecksumEPK7MessagePKhji
libXcomp.so.3:_ZNK21RenderTrapezoidsStore10decodeDataER12DecodeBufferPhjiP12ChannelCache
libXcomp.so.3:_ZNK21RenderTrapezoidsStore10decodeSizeER12DecodeBufferRPhRjhiP11WriteBufferP12ChannelCache
libXcomp.so.3:_ZNK21RenderTrapezoidsStore10encodeDataER12EncodeBufferPKhjiP12ChannelCache
libXcomp.so.3:_ZNK21RenderTrapezoidsStore10encodeSizeER12EncodeBufferPKhjiP12ChannelCache
libXcomp.so.3:_ZNK21RenderTrapezoidsStore13decodeMessageER12DecodeBufferRPhRjhiP11WriteBufferP12ChannelCache
libXcomp.so.3:_ZNK21RenderTrapezoidsStore13encodeMessageER12EncodeBufferPKhjiP12ChannelCache
libXcomp.so.3:_ZNK21RenderTrapezoidsStore13parseIdentityEP7MessagePKhji
libXcomp.so.3:_ZNK21RenderTrapezoidsStore14updateIdentityER12DecodeBufferPK7MessageP12ChannelCache
libXcomp.so.3:_ZNK21RenderTrapezoidsStore14updateIdentityER12EncodeBufferPK7MessageS4_P12ChannelCache
libXcomp.so.3:_ZNK21RenderTrapezoidsStore15unparseIdentityEPK7MessagePhji
libXcomp.so.3:_ZNK21RenderTrapezoidsStore16identityChecksumEPK7MessagePKhjP11md5_state_si
libXcomp.so.3:_ZNK22PolyFillRectangleStore12dumpIdentityEPK7Message
libXcomp.so.3:_ZNK22PolyFillRectangleStore13parseIdentityEP7MessagePKhji
libXcomp.so.3:_ZNK22PolyFillRectangleStore14updateIdentityER12DecodeBufferPK7MessageP12ChannelCache
libXcomp.so.3:_ZNK22PolyFillRectangleStore14updateIdentityER12EncodeBufferPK7MessageS4_P12ChannelCache
libXcomp.so.3:_ZNK22PolyFillRectangleStore15unparseIdentityEPK7MessagePhji
libXcomp.so.3:_ZNK22PolyFillRectangleStore16identityChecksumEPK7MessagePKhji
libXcomp.so.3:_ZNK22RenderFreePictureStore13decodeMessageER12DecodeBufferRPhRjhiP11WriteBufferP12ChannelCache
libXcomp.so.3:_ZNK22RenderFreePictureStore13encodeMessageER12EncodeBufferPKhjiP12ChannelCache
libXcomp.so.3:_ZNK22RenderFreePictureStore13parseIdentityEP7MessagePKhji
libXcomp.so.3:_ZNK22RenderFreePictureStore14updateIdentityER12DecodeBufferPK7MessageP12ChannelCache
libXcomp.so.3:_ZNK22RenderFreePictureStore14updateIdentityER12EncodeBufferPK7MessageS4_P12ChannelCache
libXcomp.so.3:_ZNK22RenderFreePictureStore15unparseIdentityEPK7MessagePhji
libXcomp.so.3:_ZNK22RenderFreePictureStore16identityChecksumEPK7MessagePKhjP11md5_state_si
libXcomp.so.3:_ZNK22RenderPictureClipStore10decodeDataER12DecodeBufferPhjiP12ChannelCache
libXcomp.so.3:_ZNK22RenderPictureClipStore10decodeSizeER12DecodeBufferRPhRjhiP11WriteBufferP12ChannelCache
libXcomp.so.3:_ZNK22RenderPictureClipStore10encodeDataER12EncodeBufferPKhjiP12ChannelCache
libXcomp.so.3:_ZNK22RenderPictureClipStore10encodeSizeER12EncodeBufferPKhjiP12ChannelCache
libXcomp.so.3:_ZNK22RenderPictureClipStore13decodeMessageER12DecodeBufferRPhRjhiP11WriteBufferP12ChannelCache
libXcomp.so.3:_ZNK22RenderPictureClipStore13encodeMessageER12EncodeBufferPKhjiP12ChannelCache
libXcomp.so.3:_ZNK22RenderPictureClipStore13parseIdentityEP7MessagePKhji
libXcomp.so.3:_ZNK22RenderPictureClipStore14updateIdentityER12DecodeBufferPK7MessageP12ChannelCache
libXcomp.so.3:_ZNK22RenderPictureClipStore14updateIdentityER12EncodeBufferPK7MessageS4_P12ChannelCache
libXcomp.so.3:_ZNK22RenderPictureClipStore15unparseIdentityEPK7MessagePhji
libXcomp.so.3:_ZNK22RenderPictureClipStore16identityChecksumEPK7MessagePKhjP11md5_state_si
libXcomp.so.3:_ZNK22SetClipRectanglesStore12dumpIdentityEPK7Message
libXcomp.so.3:_ZNK22SetClipRectanglesStore13parseIdentityEP7MessagePKhji
libXcomp.so.3:_ZNK22SetClipRectanglesStore14updateIdentityER12DecodeBufferPK7MessageP12ChannelCache
libXcomp.so.3:_ZNK22SetClipRectanglesStore14updateIdentityER12EncodeBufferPK7MessageS4_P12ChannelCache
libXcomp.so.3:_ZNK22SetClipRectanglesStore15unparseIdentityEPK7MessagePhji
libXcomp.so.3:_ZNK22SetClipRectanglesStore16identityChecksumEPK7MessagePKhji
libXcomp.so.3:_ZNK22SetUnpackColormapStore12dumpIdentityEPK7Message
libXcomp.so.3:_ZNK22SetUnpackColormapStore13parseIdentityEP7MessagePKhji
libXcomp.so.3:_ZNK22SetUnpackColormapStore14decodeIdentityER12DecodeBufferRPhRjiP11WriteBufferP12ChannelCache
libXcomp.so.3:_ZNK22SetUnpackColormapStore14encodeIdentityER12EncodeBufferPKhjiP12ChannelCache
libXcomp.so.3:_ZNK22SetUnpackColormapStore14updateIdentityER12DecodeBufferPK7MessageP12ChannelCache
libXcomp.so.3:_ZNK22SetUnpackColormapStore14updateIdentityER12EncodeBufferPK7MessageS4_P12ChannelCache
libXcomp.so.3:_ZNK22SetUnpackColormapStore15unparseIdentityEPK7MessagePhji
libXcomp.so.3:_ZNK22SetUnpackColormapStore16identityChecksumEPK7MessagePKhji
libXcomp.so.3:_ZNK22SetUnpackGeometryStore12dumpIdentityEPK7Message
libXcomp.so.3:_ZNK22SetUnpackGeometryStore13parseIdentityEP7MessagePKhji
libXcomp.so.3:_ZNK22SetUnpackGeometryStore14decodeIdentityER12DecodeBufferRPhRjiP11WriteBufferP12ChannelCache
libXcomp.so.3:_ZNK22SetUnpackGeometryStore14encodeIdentityER12EncodeBufferPKhjiP12ChannelCache
libXcomp.so.3:_ZNK22SetUnpackGeometryStore14updateIdentityER12DecodeBufferPK7MessageP12ChannelCache
libXcomp.so.3:_ZNK22SetUnpackGeometryStore14updateIdentityER12EncodeBufferPK7MessageS4_P12ChannelCache
libXcomp.so.3:_ZNK22SetUnpackGeometryStore15unparseIdentityEPK7MessagePhji
libXcomp.so.3:_ZNK22SetUnpackGeometryStore16identityChecksumEPK7MessagePKhji
libXcomp.so.3:_ZNK23CreatePixmapCompatStore12dumpIdentityEPK7Message
libXcomp.so.3:_ZNK23CreatePixmapCompatStore13parseIdentityEP7MessagePKhji
libXcomp.so.3:_ZNK23CreatePixmapCompatStore14decodeIdentityER12DecodeBufferRPhRjiP11WriteBufferP12ChannelCache
libXcomp.so.3:_ZNK23CreatePixmapCompatStore14encodeIdentityER12EncodeBufferPKhjiP12ChannelCache
libXcomp.so.3:_ZNK23CreatePixmapCompatStore14updateIdentityER12DecodeBufferPK7MessageP12ChannelCache
libXcomp.so.3:_ZNK23CreatePixmapCompatStore14updateIdentityER12EncodeBufferPK7MessageS4_P12ChannelCache
libXcomp.so.3:_ZNK23CreatePixmapCompatStore15unparseIdentityEPK7MessagePhji
libXcomp.so.3:_ZNK23CreatePixmapCompatStore16identityChecksumEPK7MessagePKhji
libXcomp.so.3:_ZNK23RenderFreeGlyphSetStore13decodeMessageER12DecodeBufferRPhRjhiP11WriteBufferP12ChannelCache
libXcomp.so.3:_ZNK23RenderFreeGlyphSetStore13encodeMessageER12EncodeBufferPKhjiP12ChannelCache
libXcomp.so.3:_ZNK23RenderFreeGlyphSetStore13parseIdentityEP7MessagePKhji
libXcomp.so.3:_ZNK23RenderFreeGlyphSetStore14updateIdentityER12DecodeBufferPK7MessageP12ChannelCache
libXcomp.so.3:_ZNK23RenderFreeGlyphSetStore14updateIdentityER12EncodeBufferPK7MessageS4_P12ChannelCache
libXcomp.so.3:_ZNK23RenderFreeGlyphSetStore15unparseIdentityEPK7MessagePhji
libXcomp.so.3:_ZNK23RenderFreeGlyphSetStore16identityChecksumEPK7MessagePKhjP11md5_state_si
libXcomp.so.3:_ZNK24RenderChangePictureStore10decodeDataER12DecodeBufferPhjiP12ChannelCache
libXcomp.so.3:_ZNK24RenderChangePictureStore10decodeSizeER12DecodeBufferRPhRjhiP11WriteBufferP12ChannelCache
libXcomp.so.3:_ZNK24RenderChangePictureStore10encodeDataER12EncodeBufferPKhjiP12ChannelCache
libXcomp.so.3:_ZNK24RenderChangePictureStore10encodeSizeER12EncodeBufferPKhjiP12ChannelCache
libXcomp.so.3:_ZNK24RenderChangePictureStore13decodeMessageER12DecodeBufferRPhRjhiP11WriteBufferP12ChannelCache
libXcomp.so.3:_ZNK24RenderChangePictureStore13encodeMessageER12EncodeBufferPKhjiP12ChannelCache
libXcomp.so.3:_ZNK24RenderChangePictureStore13parseIdentityEP7MessagePKhji
libXcomp.so.3:_ZNK24RenderChangePictureStore14updateIdentityER12DecodeBufferPK7MessageP12ChannelCache
libXcomp.so.3:_ZNK24RenderChangePictureStore14updateIdentityER12EncodeBufferPK7MessageS4_P12ChannelCache
libXcomp.so.3:_ZNK24RenderChangePictureStore15unparseIdentityEPK7MessagePhji
libXcomp.so.3:_ZNK24RenderChangePictureStore16identityChecksumEPK7MessagePKhjP11md5_state_si
libXcomp.so.3:_ZNK24RenderCreatePictureStore10decodeDataER12DecodeBufferPhjiP12ChannelCache
libXcomp.so.3:_ZNK24RenderCreatePictureStore10decodeSizeER12DecodeBufferRPhRjhiP11WriteBufferP12ChannelCache
libXcomp.so.3:_ZNK24RenderCreatePictureStore10encodeDataER12EncodeBufferPKhjiP12ChannelCache
libXcomp.so.3:_ZNK24RenderCreatePictureStore10encodeSizeER12EncodeBufferPKhjiP12ChannelCache
libXcomp.so.3:_ZNK24RenderCreatePictureStore13decodeMessageER12DecodeBufferRPhRjhiP11WriteBufferP12ChannelCache
libXcomp.so.3:_ZNK24RenderCreatePictureStore13encodeMessageER12EncodeBufferPKhjiP12ChannelCache
libXcomp.so.3:_ZNK24RenderCreatePictureStore13parseIdentityEP7MessagePKhji
libXcomp.so.3:_ZNK24RenderCreatePictureStore14updateIdentityER12DecodeBufferPK7MessageP12ChannelCache
libXcomp.so.3:_ZNK24RenderCreatePictureStore14updateIdentityER12EncodeBufferPK7MessageS4_P12ChannelCache
libXcomp.so.3:_ZNK24RenderCreatePictureStore15unparseIdentityEPK7MessagePhji
libXcomp.so.3:_ZNK24RenderCreatePictureStore16identityChecksumEPK7MessagePKhjP11md5_state_si
libXcomp.so.3:_ZNK24RenderPictureFilterStore10decodeDataER12DecodeBufferPhjiP12ChannelCache
libXcomp.so.3:_ZNK24RenderPictureFilterStore10decodeSizeER12DecodeBufferRPhRjhiP11WriteBufferP12ChannelCache
libXcomp.so.3:_ZNK24RenderPictureFilterStore10encodeDataER12EncodeBufferPKhjiP12ChannelCache
libXcomp.so.3:_ZNK24RenderPictureFilterStore10encodeSizeER12EncodeBufferPKhjiP12ChannelCache
libXcomp.so.3:_ZNK24RenderPictureFilterStore13decodeMessageER12DecodeBufferRPhRjhiP11WriteBufferP12ChannelCache
libXcomp.so.3:_ZNK24RenderPictureFilterStore13encodeMessageER12EncodeBufferPKhjiP12ChannelCache
libXcomp.so.3:_ZNK24RenderPictureFilterStore13parseIdentityEP7MessagePKhji
libXcomp.so.3:_ZNK24RenderPictureFilterStore14updateIdentityER12DecodeBufferPK7MessageP12ChannelCache
libXcomp.so.3:_ZNK24RenderPictureFilterStore14updateIdentityER12EncodeBufferPK7MessageS4_P12ChannelCache
libXcomp.so.3:_ZNK24RenderPictureFilterStore15unparseIdentityEPK7MessagePhji
libXcomp.so.3:_ZNK24RenderPictureFilterStore16identityChecksumEPK7MessagePKhjP11md5_state_si
libXcomp.so.3:_ZNK25RenderCreateGlyphSetStore13decodeMessageER12DecodeBufferRPhRjhiP11WriteBufferP12ChannelCache
libXcomp.so.3:_ZNK25RenderCreateGlyphSetStore13encodeMessageER12EncodeBufferPKhjiP12ChannelCache
libXcomp.so.3:_ZNK25RenderCreateGlyphSetStore13parseIdentityEP7MessagePKhji
libXcomp.so.3:_ZNK25RenderCreateGlyphSetStore14updateIdentityER12DecodeBufferPK7MessageP12ChannelCache
libXcomp.so.3:_ZNK25RenderCreateGlyphSetStore14updateIdentityER12EncodeBufferPK7MessageS4_P12ChannelCache
libXcomp.so.3:_ZNK25RenderCreateGlyphSetStore15unparseIdentityEPK7MessagePhji
libXcomp.so.3:_ZNK25RenderCreateGlyphSetStore16identityChecksumEPK7MessagePKhjP11md5_state_si
libXcomp.so.3:_ZNK25RenderFillRectanglesStore10decodeDataER12DecodeBufferPhjiP12ChannelCache
libXcomp.so.3:_ZNK25RenderFillRectanglesStore10decodeSizeER12DecodeBufferRPhRjhiP11WriteBufferP12ChannelCache
libXcomp.so.3:_ZNK25RenderFillRectanglesStore10encodeDataER12EncodeBufferPKhjiP12ChannelCache
libXcomp.so.3:_ZNK25RenderFillRectanglesStore10encodeSizeER12EncodeBufferPKhjiP12ChannelCache
libXcomp.so.3:_ZNK25RenderFillRectanglesStore13decodeMessageER12DecodeBufferRPhRjhiP11WriteBufferP12ChannelCache
libXcomp.so.3:_ZNK25RenderFillRectanglesStore13encodeMessageER12EncodeBufferPKhjiP12ChannelCache
libXcomp.so.3:_ZNK25RenderFillRectanglesStore13parseIdentityEP7MessagePKhji
libXcomp.so.3:_ZNK25RenderFillRectanglesStore14updateIdentityER12DecodeBufferPK7MessageP12ChannelCache
libXcomp.so.3:_ZNK25RenderFillRectanglesStore14updateIdentityER12EncodeBufferPK7MessageS4_P12ChannelCache
libXcomp.so.3:_ZNK25RenderFillRectanglesStore15unparseIdentityEPK7MessagePhji
libXcomp.so.3:_ZNK25RenderFillRectanglesStore16identityChecksumEPK7MessagePKhjP11md5_state_si
libXcomp.so.3:_ZNK25RenderGenericRequestStore10decodeDataER12DecodeBufferPhjiP12ChannelCache
libXcomp.so.3:_ZNK25RenderGenericRequestStore10encodeDataER12EncodeBufferPKhjiP12ChannelCache
libXcomp.so.3:_ZNK25RenderGenericRequestStore13decodeMessageER12DecodeBufferRPhRjhiP11WriteBufferP12ChannelCache
libXcomp.so.3:_ZNK25RenderGenericRequestStore13encodeMessageER12EncodeBufferPKhjiP12ChannelCache
libXcomp.so.3:_ZNK25RenderGenericRequestStore13parseIdentityEP7MessagePKhji
libXcomp.so.3:_ZNK25RenderGenericRequestStore14updateIdentityER12DecodeBufferPK7MessageP12ChannelCache
libXcomp.so.3:_ZNK25RenderGenericRequestStore14updateIdentityER12EncodeBufferPK7MessageS4_P12ChannelCache
libXcomp.so.3:_ZNK25RenderGenericRequestStore15unparseIdentityEPK7MessagePhji
libXcomp.so.3:_ZNK25RenderGenericRequestStore16identityChecksumEPK7MessagePKhjP11md5_state_si
libXcomp.so.3:_ZNK25RenderMinorExtensionStore12parseIntDataEPK7MessagePKhjji
libXcomp.so.3:_ZNK25RenderMinorExtensionStore13decodeIntDataER12DecodeBufferPhjjiP12ChannelCache
libXcomp.so.3:_ZNK25RenderMinorExtensionStore13encodeIntDataER12EncodeBufferPKhjjiP12ChannelCache
libXcomp.so.3:_ZNK25RenderMinorExtensionStore13updateIntDataER12DecodeBufferPK7MessagejjP12ChannelCache
libXcomp.so.3:_ZNK25RenderMinorExtensionStore13updateIntDataER12EncodeBufferPK7MessageS4_jjP12ChannelCache
libXcomp.so.3:_ZNK25RenderMinorExtensionStore14decodeCharDataER12DecodeBufferPhjjiP12ChannelCache
libXcomp.so.3:_ZNK25RenderMinorExtensionStore14decodeLongDataER12DecodeBufferPhjjiP12ChannelCache
libXcomp.so.3:_ZNK25RenderMinorExtensionStore14encodeCharDataER12EncodeBufferPKhjjiP12ChannelCache
libXcomp.so.3:_ZNK25RenderMinorExtensionStore14encodeLongDataER12EncodeBufferPKhjjiP12ChannelCache
libXcomp.so.3:_ZNK25RenderMinorExtensionStore14unparseIntDataEPK7MessagePhjji
libXcomp.so.3:_ZNK25SetUnpackAlphaCompatStore12dumpIdentityEPK7Message
libXcomp.so.3:_ZNK25SetUnpackAlphaCompatStore13parseIdentityEP7MessagePKhji
libXcomp.so.3:_ZNK25SetUnpackAlphaCompatStore14decodeIdentityER12DecodeBufferRPhRjiP11WriteBufferP12ChannelCache
libXcomp.so.3:_ZNK25SetUnpackAlphaCompatStore14encodeIdentityER12EncodeBufferPKhjiP12ChannelCache
libXcomp.so.3:_ZNK25SetUnpackAlphaCompatStore14updateIdentityER12DecodeBufferPK7MessageP12ChannelCache
libXcomp.so.3:_ZNK25SetUnpackAlphaCompatStore14updateIdentityER12EncodeBufferPK7MessageS4_P12ChannelCache
libXcomp.so.3:_ZNK25SetUnpackAlphaCompatStore15unparseIdentityEPK7MessagePhji
libXcomp.so.3:_ZNK25SetUnpackAlphaCompatStore16identityChecksumEPK7MessagePKhji
libXcomp.so.3:_ZNK26RenderCompositeCompatStore10decodeDataER12DecodeBufferPhjiP12ChannelCache
libXcomp.so.3:_ZNK26RenderCompositeCompatStore10decodeSizeER12DecodeBufferRPhRjhiP11WriteBufferP12ChannelCache
libXcomp.so.3:_ZNK26RenderCompositeCompatStore10encodeDataER12EncodeBufferPKhjiP12ChannelCache
libXcomp.so.3:_ZNK26RenderCompositeCompatStore10encodeSizeER12EncodeBufferPKhjiP12ChannelCache
libXcomp.so.3:_ZNK26RenderCompositeCompatStore13decodeMessageER12DecodeBufferRPhRjhiP11WriteBufferP12ChannelCache
libXcomp.so.3:_ZNK26RenderCompositeCompatStore13encodeMessageER12EncodeBufferPKhjiP12ChannelCache
libXcomp.so.3:_ZNK26RenderCompositeCompatStore13parseIdentityEP7MessagePKhji
libXcomp.so.3:_ZNK26RenderCompositeCompatStore14updateIdentityER12DecodeBufferPK7MessageP12ChannelCache
libXcomp.so.3:_ZNK26RenderCompositeCompatStore14updateIdentityER12EncodeBufferPK7MessageS4_P12ChannelCache
libXcomp.so.3:_ZNK26RenderCompositeCompatStore15unparseIdentityEPK7MessagePhji
libXcomp.so.3:_ZNK26RenderCompositeCompatStore16identityChecksumEPK7MessagePKhjP11md5_state_si
libXcomp.so.3:_ZNK26RenderCompositeGlyphsStore10decodeDataER12DecodeBufferPhjiP12ChannelCache
libXcomp.so.3:_ZNK26RenderCompositeGlyphsStore10decodeSizeER12DecodeBufferRPhRjhiP11WriteBufferP12ChannelCache
libXcomp.so.3:_ZNK26RenderCompositeGlyphsStore10encodeDataER12EncodeBufferPKhjiP12ChannelCache
libXcomp.so.3:_ZNK26RenderCompositeGlyphsStore10encodeSizeER12EncodeBufferPKhjiP12ChannelCache
libXcomp.so.3:_ZNK26RenderCompositeGlyphsStore13decodeMessageER12DecodeBufferRPhRjhiP11WriteBufferP12ChannelCache
libXcomp.so.3:_ZNK26RenderCompositeGlyphsStore13encodeMessageER12EncodeBufferPKhjiP12ChannelCache
libXcomp.so.3:_ZNK26RenderCompositeGlyphsStore13parseIdentityEP7MessagePKhji
libXcomp.so.3:_ZNK26RenderCompositeGlyphsStore14updateIdentityER12DecodeBufferPK7MessageP12ChannelCache
libXcomp.so.3:_ZNK26RenderCompositeGlyphsStore14updateIdentityER12EncodeBufferPK7MessageS4_P12ChannelCache
libXcomp.so.3:_ZNK26RenderCompositeGlyphsStore15unparseIdentityEPK7MessagePhji
libXcomp.so.3:_ZNK26RenderCompositeGlyphsStore16identityChecksumEPK7MessagePKhjP11md5_state_si
libXcomp.so.3:_ZNK27RenderPictureTransformStore10decodeDataER12DecodeBufferPhjiP12ChannelCache
libXcomp.so.3:_ZNK27RenderPictureTransformStore10decodeSizeER12DecodeBufferRPhRjhiP11WriteBufferP12ChannelCache
libXcomp.so.3:_ZNK27RenderPictureTransformStore10encodeDataER12EncodeBufferPKhjiP12ChannelCache
libXcomp.so.3:_ZNK27RenderPictureTransformStore10encodeSizeER12EncodeBufferPKhjiP12ChannelCache
libXcomp.so.3:_ZNK27RenderPictureTransformStore13decodeMessageER12DecodeBufferRPhRjhiP11WriteBufferP12ChannelCache
libXcomp.so.3:_ZNK27RenderPictureTransformStore13encodeMessageER12EncodeBufferPKhjiP12ChannelCache
libXcomp.so.3:_ZNK27RenderPictureTransformStore13parseIdentityEP7MessagePKhji
libXcomp.so.3:_ZNK27RenderPictureTransformStore14updateIdentityER12DecodeBufferPK7MessageP12ChannelCache
libXcomp.so.3:_ZNK27RenderPictureTransformStore14updateIdentityER12EncodeBufferPK7MessageS4_P12ChannelCache
libXcomp.so.3:_ZNK27RenderPictureTransformStore15unparseIdentityEPK7MessagePhji
libXcomp.so.3:_ZNK27RenderPictureTransformStore16identityChecksumEPK7MessagePKhjP11md5_state_si
libXcomp.so.3:_ZNK28RenderFreePictureCompatStore13decodeMessageER12DecodeBufferRPhRjhiP11WriteBufferP12ChannelCache
libXcomp.so.3:_ZNK28RenderFreePictureCompatStore13encodeMessageER12EncodeBufferPKhjiP12ChannelCache
libXcomp.so.3:_ZNK28RenderFreePictureCompatStore13parseIdentityEP7MessagePKhji
libXcomp.so.3:_ZNK28RenderFreePictureCompatStore14updateIdentityER12DecodeBufferPK7MessageP12ChannelCache
libXcomp.so.3:_ZNK28RenderFreePictureCompatStore14updateIdentityER12EncodeBufferPK7MessageS4_P12ChannelCache
libXcomp.so.3:_ZNK28RenderFreePictureCompatStore15unparseIdentityEPK7MessagePhji
libXcomp.so.3:_ZNK28RenderFreePictureCompatStore16identityChecksumEPK7MessagePKhjP11md5_state_si
libXcomp.so.3:_ZNK28RenderPictureClipCompatStore10decodeDataER12DecodeBufferPhjiP12ChannelCache
libXcomp.so.3:_ZNK28RenderPictureClipCompatStore10decodeSizeER12DecodeBufferRPhRjhiP11WriteBufferP12ChannelCache
libXcomp.so.3:_ZNK28RenderPictureClipCompatStore10encodeDataER12EncodeBufferPKhjiP12ChannelCache
libXcomp.so.3:_ZNK28RenderPictureClipCompatStore10encodeSizeER12EncodeBufferPKhjiP12ChannelCache
libXcomp.so.3:_ZNK28RenderPictureClipCompatStore13decodeMessageER12DecodeBufferRPhRjhiP11WriteBufferP12ChannelCache
libXcomp.so.3:_ZNK28RenderPictureClipCompatStore13encodeMessageER12EncodeBufferPKhjiP12ChannelCache
libXcomp.so.3:_ZNK28RenderPictureClipCompatStore13parseIdentityEP7MessagePKhji
libXcomp.so.3:_ZNK28RenderPictureClipCompatStore14updateIdentityER12DecodeBufferPK7MessageP12ChannelCache
libXcomp.so.3:_ZNK28RenderPictureClipCompatStore14updateIdentityER12EncodeBufferPK7MessageS4_P12ChannelCache
libXcomp.so.3:_ZNK28RenderPictureClipCompatStore15unparseIdentityEPK7MessagePhji
libXcomp.so.3:_ZNK28RenderPictureClipCompatStore16identityChecksumEPK7MessagePKhjP11md5_state_si
libXcomp.so.3:_ZNK28SetUnpackColormapCompatStore12dumpIdentityEPK7Message
libXcomp.so.3:_ZNK28SetUnpackColormapCompatStore13parseIdentityEP7MessagePKhji
libXcomp.so.3:_ZNK28SetUnpackColormapCompatStore14decodeIdentityER12DecodeBufferRPhRjiP11WriteBufferP12ChannelCache
libXcomp.so.3:_ZNK28SetUnpackColormapCompatStore14encodeIdentityER12EncodeBufferPKhjiP12ChannelCache
libXcomp.so.3:_ZNK28SetUnpackColormapCompatStore14updateIdentityER12DecodeBufferPK7MessageP12ChannelCache
libXcomp.so.3:_ZNK28SetUnpackColormapCompatStore14updateIdentityER12EncodeBufferPK7MessageS4_P12ChannelCache
libXcomp.so.3:_ZNK28SetUnpackColormapCompatStore15unparseIdentityEPK7MessagePhji
libXcomp.so.3:_ZNK28SetUnpackColormapCompatStore16identityChecksumEPK7MessagePKhji
libXcomp.so.3:_ZNK30RenderCreatePictureCompatStore10decodeDataER12DecodeBufferPhjiP12ChannelCache
libXcomp.so.3:_ZNK30RenderCreatePictureCompatStore10decodeSizeER12DecodeBufferRPhRjhiP11WriteBufferP12ChannelCache
libXcomp.so.3:_ZNK30RenderCreatePictureCompatStore10encodeDataER12EncodeBufferPKhjiP12ChannelCache
libXcomp.so.3:_ZNK30RenderCreatePictureCompatStore10encodeSizeER12EncodeBufferPKhjiP12ChannelCache
libXcomp.so.3:_ZNK30RenderCreatePictureCompatStore13decodeMessageER12DecodeBufferRPhRjhiP11WriteBufferP12ChannelCache
libXcomp.so.3:_ZNK30RenderCreatePictureCompatStore13encodeMessageER12EncodeBufferPKhjiP12ChannelCache
libXcomp.so.3:_ZNK30RenderCreatePictureCompatStore13parseIdentityEP7MessagePKhji
libXcomp.so.3:_ZNK30RenderCreatePictureCompatStore14updateIdentityER12DecodeBufferPK7MessageP12ChannelCache
libXcomp.so.3:_ZNK30RenderCreatePictureCompatStore14updateIdentityER12EncodeBufferPK7MessageS4_P12ChannelCache
libXcomp.so.3:_ZNK30RenderCreatePictureCompatStore15unparseIdentityEPK7MessagePhji
libXcomp.so.3:_ZNK30RenderCreatePictureCompatStore16identityChecksumEPK7MessagePKhjP11md5_state_si
libXcomp.so.3:_ZNK31RenderCreateGlyphSetCompatStore10decodeDataER12DecodeBufferPhjiP12ChannelCache
libXcomp.so.3:_ZNK31RenderCreateGlyphSetCompatStore10decodeSizeER12DecodeBufferRPhRjhiP11WriteBufferP12ChannelCache
libXcomp.so.3:_ZNK31RenderCreateGlyphSetCompatStore10encodeDataER12EncodeBufferPKhjiP12ChannelCache
libXcomp.so.3:_ZNK31RenderCreateGlyphSetCompatStore10encodeSizeER12EncodeBufferPKhjiP12ChannelCache
libXcomp.so.3:_ZNK31RenderCreateGlyphSetCompatStore13decodeMessageER12DecodeBufferRPhRjhiP11WriteBufferP12ChannelCache
libXcomp.so.3:_ZNK31RenderCreateGlyphSetCompatStore13encodeMessageER12EncodeBufferPKhjiP12ChannelCache
libXcomp.so.3:_ZNK31RenderCreateGlyphSetCompatStore13parseIdentityEP7MessagePKhji
libXcomp.so.3:_ZNK31RenderCreateGlyphSetCompatStore14updateIdentityER12DecodeBufferPK7MessageP12ChannelCache
libXcomp.so.3:_ZNK31RenderCreateGlyphSetCompatStore14updateIdentityER12EncodeBufferPK7MessageS4_P12ChannelCache
libXcomp.so.3:_ZNK31RenderCreateGlyphSetCompatStore15unparseIdentityEPK7MessagePhji
libXcomp.so.3:_ZNK31RenderCreateGlyphSetCompatStore16identityChecksumEPK7MessagePKhjP11md5_state_si
libXcomp.so.3:_ZNK32RenderCompositeGlyphsCompatStore10decodeDataER12DecodeBufferPhjiP12ChannelCache
libXcomp.so.3:_ZNK32RenderCompositeGlyphsCompatStore10decodeSizeER12DecodeBufferRPhRjhiP11WriteBufferP12ChannelCache
libXcomp.so.3:_ZNK32RenderCompositeGlyphsCompatStore10encodeDataER12EncodeBufferPKhjiP12ChannelCache
libXcomp.so.3:_ZNK32RenderCompositeGlyphsCompatStore10encodeSizeER12EncodeBufferPKhjiP12ChannelCache
libXcomp.so.3:_ZNK32RenderCompositeGlyphsCompatStore13decodeMessageER12DecodeBufferRPhRjhiP11WriteBufferP12ChannelCache
libXcomp.so.3:_ZNK32RenderCompositeGlyphsCompatStore13encodeMessageER12EncodeBufferPKhjiP12ChannelCache
libXcomp.so.3:_ZNK32RenderCompositeGlyphsCompatStore13parseIdentityEP7MessagePKhji
libXcomp.so.3:_ZNK32RenderCompositeGlyphsCompatStore14updateIdentityER12DecodeBufferPK7MessageP12ChannelCache
libXcomp.so.3:_ZNK32RenderCompositeGlyphsCompatStore14updateIdentityER12EncodeBufferPK7MessageS4_P12ChannelCache
libXcomp.so.3:_ZNK32RenderCompositeGlyphsCompatStore15unparseIdentityEPK7MessagePhji
libXcomp.so.3:_ZNK32RenderCompositeGlyphsCompatStore16identityChecksumEPK7MessagePKhjP11md5_state_si
libXcomp.so.3:_ZNK4File7compareEPS_
libXcomp.so.3:_ZNK5Proxy16handleFailOnLoadEPKcS1_
libXcomp.so.3:_ZNK5Proxy16handleFailOnSaveEPKcS1_
libXcomp.so.3:_ZNK5Proxy17handleLoadVersionEPKhRiS2_S2_
libXcomp.so.3:_ZNK5Proxy17handleSaveVersionEPhRiS1_S1_
libXcomp.so.3:_ZNK5Proxy19handleLoadAllStoresEPKcS1_
libXcomp.so.3:_ZNK5Proxy19handleSaveAllStoresEPKc
libXcomp.so.3:_ZNK7T_olderclEP4FileS1_
libXcomp.so.3:_ZNK9Transport4waitEi
libXcomp.so.3:md5_append
libXcomp.so.3:md5_finish
libXcomp.so.3:md5_init
